; Listing generated by Microsoft (R) Optimizing Compiler Version 19.00.24215.1 

include listing.inc

INCLUDELIB MSVCRTD
INCLUDELIB OLDNAMES

CONST	SEGMENT
?qt_meta_stringdata_socketServer@@3Uqt_meta_stringdata_socketServer_t@@B DD 0ffffffffH ; qt_meta_stringdata_socketServer
	DD	0cH
	DD	00H
	ORG $+4
	DQ	0000000000000180H
	DD	0ffffffffH
	DD	011H
	DD	00H
	ORG $+4
	DQ	0000000000000175H
	DD	0ffffffffH
	DD	00H
	DD	00H
	ORG $+4
	DQ	000000000000016fH
	DD	0ffffffffH
	DD	011H
	DD	00H
	ORG $+4
	DQ	0000000000000158H
	DD	0ffffffffH
	DD	015H
	DD	00H
	ORG $+4
	DQ	0000000000000152H
	DD	0ffffffffH
	DD	0bH
	DD	00H
	ORG $+4
	DQ	0000000000000150H
	DD	0ffffffffH
	DD	012H
	DD	00H
	ORG $+4
	DQ	0000000000000144H
	DD	0ffffffffH
	DD	011H
	DD	00H
	ORG $+4
	DQ	000000000000013fH
	DD	0ffffffffH
	DD	010H
	DD	00H
	ORG $+4
	DQ	0000000000000139H
	DD	0ffffffffH
	DD	0fH
	DD	00H
	ORG $+4
	DQ	0000000000000132H
	DD	0ffffffffH
	DD	0dH
	DD	00H
	ORG $+4
	DQ	000000000000012aH
	DD	0ffffffffH
	DD	03H
	DD	00H
	ORG $+4
	DQ	0000000000000120H
	DD	0ffffffffH
	DD	04H
	DD	00H
	ORG $+4
	DQ	000000000000010cH
	DD	0ffffffffH
	DD	0eH
	DD	00H
	ORG $+4
	DQ	00000000000000f9H
	DD	0ffffffffH
	DD	010H
	DD	00H
	ORG $+4
	DQ	00000000000000f0H
	DD	0ffffffffH
	DD	011H
	DD	00H
	ORG $+4
	DQ	00000000000000e9H
	DB	'socketServer', 00H, 'signal_newConnect', 00H, 00H, 'sign'
	DB	'al_disconnect', 00H, 'signal_receiveDataAll', 00H, 'signal_be'
	DB	'at', 00H, 'signal_detectStart', 00H, 'signal_detectStop', 00H
	DB	'signal_caliStart', 00H, 'signal_caliStop', 00H, 'signal_dataI'
	DB	'n', 00H, 'str', 00H, 'type', 00H, 'slot_newClient', 00H, 'slo'
	DB	't_receiveData', 00H, 'slot_disconnected', 00H
	ORG $+5
$SG102646 DB	'!x->ref.isStatic()', 00H
	ORG $+5
?qt_meta_data_socketServer@@3QBIB DD 07H		; qt_meta_data_socketServer
	DD	00H
	DD	00H
	DD	00H
	DD	0cH
	DD	0eH
	DD	00H
	DD	00H
	DD	00H
	DD	00H
	DD	00H
	DD	00H
	DD	00H
	DD	09H
	DD	01H
	DD	00H
	DD	04aH
	DD	02H
	DD	06H
	DD	03H
	DD	00H
	DD	04bH
	DD	02H
	DD	06H
	DD	04H
	DD	01H
	DD	04cH
	DD	02H
	DD	06H
	DD	05H
	DD	00H
	DD	04fH
	DD	02H
	DD	06H
	DD	06H
	DD	00H
	DD	050H
	DD	02H
	DD	06H
	DD	07H
	DD	00H
	DD	051H
	DD	02H
	DD	06H
	DD	08H
	DD	00H
	DD	052H
	DD	02H
	DD	06H
	DD	09H
	DD	00H
	DD	053H
	DD	02H
	DD	06H
	DD	0aH
	DD	02H
	DD	054H
	DD	02H
	DD	06H
	DD	0dH
	DD	00H
	DD	059H
	DD	02H
	DD	08H
	DD	0eH
	DD	00H
	DD	05aH
	DD	02H
	DD	08H
	DD	0fH
	DD	00H
	DD	05bH
	DD	02H
	DD	08H
	DD	02bH
	DD	02bH
	DD	02bH
	DD	0cH
	DD	02H
	DD	02bH
	DD	02bH
	DD	02bH
	DD	02bH
	DD	02bH
	DD	02bH
	DD	0aH
	DD	02H
	DD	0bH
	DD	0cH
	DD	02bH
	DD	02bH
	DD	02bH
	DD	00H
	ORG $+4
$SG98446 DB	'C:\Qt\Qt5.9.8\5.9.8\msvc2015_64\include\QtCore/qmetatype'
	DB	'.h', 00H
	ORG $+5
$SG98448 DB	'qRegisterNormalizedMetaType', 00H
$SG102658 DB	'x == d', 00H
	ORG $+5
$SG98447 DB	'qRegisterNormalizedMetaType was called with a not normal'
	DB	'ized type name, please call qRegisterMetaType instead.', 00H
	ORG $+1
$SG81128 DB	'ModuleBase', 00H
	ORG $+5
$SG102634 DB	'c:\qt\qt5.9.8\5.9.8\msvc2015_64\include\qtcore\qvector.h'
	DB	00H
	ORG $+3
$SG102769 DB	'x == d', 00H
	ORG $+5
$SG102635 DB	'asize >= 0 && asize <= aalloc', 00H
	ORG $+2
$SG102643 DB	'c:\qt\qt5.9.8\5.9.8\msvc2015_64\include\qtcore\qvector.h'
	DB	00H
	ORG $+7
$SG102654 DB	'int(d->alloc) == aalloc', 00H
$SG102644 DB	'x->ref.isSharable() || options.testFlag(QArrayData::Unsh'
	DB	'arable)', 00H
$SG102645 DB	'c:\qt\qt5.9.8\5.9.8\msvc2015_64\include\qtcore\qvector.h'
	DB	00H
	ORG $+7
$SG102653 DB	'c:\qt\qt5.9.8\5.9.8\msvc2015_64\include\qtcore\qvector.h'
	DB	00H
	ORG $+7
$SG102655 DB	'c:\qt\qt5.9.8\5.9.8\msvc2015_64\include\qtcore\qvector.h'
	DB	00H
	ORG $+7
$SG102656 DB	'isDetached()', 00H
	ORG $+3
$SG102657 DB	'c:\qt\qt5.9.8\5.9.8\msvc2015_64\include\qtcore\qvector.h'
	DB	00H
	ORG $+7
$SG102666 DB	'c:\qt\qt5.9.8\5.9.8\msvc2015_64\include\qtcore\qvector.h'
	DB	00H
	ORG $+7
$SG102667 DB	'd->data()', 00H
	ORG $+6
$SG102668 DB	'c:\qt\qt5.9.8\5.9.8\msvc2015_64\include\qtcore\qvector.h'
	DB	00H
	ORG $+7
$SG102669 DB	'uint(d->size) <= d->alloc', 00H
	ORG $+6
$SG102670 DB	'c:\qt\qt5.9.8\5.9.8\msvc2015_64\include\qtcore\qvector.h'
	DB	00H
	ORG $+7
$SG102671 DB	'd != Data::unsharableEmpty()', 00H
	ORG $+3
$SG102672 DB	'c:\qt\qt5.9.8\5.9.8\msvc2015_64\include\qtcore\qvector.h'
	DB	00H
	ORG $+7
$SG102673 DB	'aalloc ? d != Data::sharedNull() : d == Data::sharedNull'
	DB	'()', 00H
	ORG $+5
$SG102674 DB	'c:\qt\qt5.9.8\5.9.8\msvc2015_64\include\qtcore\qvector.h'
	DB	00H
	ORG $+7
$SG102675 DB	'd->alloc >= uint(aalloc)', 00H
	ORG $+7
$SG102676 DB	'c:\qt\qt5.9.8\5.9.8\msvc2015_64\include\qtcore\qvector.h'
	DB	00H
	ORG $+7
$SG102677 DB	'd->size == asize', 00H
	ORG $+7
$SG99616 DB	'C:\Qt\Qt5.9.8\5.9.8\msvc2015_64\include\QtCore/qmetatype'
	DB	'.h', 00H
	ORG $+13
$SG99617 DB	'qRegisterNormalizedMetaType was called with a not normal'
	DB	'ized type name, please call qRegisterMetaType instead.', 00H
	ORG $+1
$SG99618 DB	'qRegisterNormalizedMetaType', 00H
	ORG $+4
$SG102744 DB	'c:\qt\qt5.9.8\5.9.8\msvc2015_64\include\qtcore\qvector.h'
	DB	00H
	ORG $+7
$SG102745 DB	'asize >= 0 && asize <= aalloc', 00H
	ORG $+2
$SG102753 DB	'c:\qt\qt5.9.8\5.9.8\msvc2015_64\include\qtcore\qvector.h'
	DB	00H
	ORG $+7
$SG102754 DB	'x->ref.isSharable() || options.testFlag(QArrayData::Unsh'
	DB	'arable)', 00H
$SG102755 DB	'c:\qt\qt5.9.8\5.9.8\msvc2015_64\include\qtcore\qvector.h'
	DB	00H
	ORG $+7
$SG102756 DB	'!x->ref.isStatic()', 00H
	ORG $+5
$SG102764 DB	'c:\qt\qt5.9.8\5.9.8\msvc2015_64\include\qtcore\qvector.h'
	DB	00H
	ORG $+7
$SG102765 DB	'int(d->alloc) == aalloc', 00H
$SG102766 DB	'c:\qt\qt5.9.8\5.9.8\msvc2015_64\include\qtcore\qvector.h'
	DB	00H
	ORG $+7
$SG102767 DB	'isDetached()', 00H
	ORG $+3
$SG102768 DB	'c:\qt\qt5.9.8\5.9.8\msvc2015_64\include\qtcore\qvector.h'
	DB	00H
	ORG $+7
$SG102777 DB	'c:\qt\qt5.9.8\5.9.8\msvc2015_64\include\qtcore\qvector.h'
	DB	00H
	ORG $+7
$SG102778 DB	'd->data()', 00H
	ORG $+6
$SG102779 DB	'c:\qt\qt5.9.8\5.9.8\msvc2015_64\include\qtcore\qvector.h'
	DB	00H
	ORG $+7
$SG102780 DB	'uint(d->size) <= d->alloc', 00H
	ORG $+6
$SG102781 DB	'c:\qt\qt5.9.8\5.9.8\msvc2015_64\include\qtcore\qvector.h'
	DB	00H
	ORG $+7
$SG102782 DB	'd != Data::unsharableEmpty()', 00H
	ORG $+3
$SG102783 DB	'c:\qt\qt5.9.8\5.9.8\msvc2015_64\include\qtcore\qvector.h'
	DB	00H
	ORG $+7
$SG102784 DB	'aalloc ? d != Data::sharedNull() : d == Data::sharedNull'
	DB	'()', 00H
	ORG $+5
$SG102785 DB	'c:\qt\qt5.9.8\5.9.8\msvc2015_64\include\qtcore\qvector.h'
	DB	00H
	ORG $+7
$SG102786 DB	'd->alloc >= uint(aalloc)', 00H
	ORG $+7
$SG102787 DB	'c:\qt\qt5.9.8\5.9.8\msvc2015_64\include\qtcore\qvector.h'
	DB	00H
	ORG $+7
$SG102788 DB	'd->size == asize', 00H
	ORG $+7
$SG98836 DB	'C:\Qt\Qt5.9.8\5.9.8\msvc2015_64\include\QtCore/qmetatype'
	DB	'.h', 00H
	ORG $+13
$SG98837 DB	'qRegisterNormalizedMetaType was called with a not normal'
	DB	'ized type name, please call qRegisterMetaType instead.', 00H
	ORG $+1
$SG98838 DB	'qRegisterNormalizedMetaType', 00H
	ORG $+4
$SG100894 DB	'C:\Qt\Qt5.9.8\5.9.8\msvc2015_64\include\QtCore/qmetatype'
	DB	'.h', 00H
	ORG $+5
$SG100895 DB	'qRegisterNormalizedMetaType was called with a not normal'
	DB	'ized type name, please call qRegisterMetaType instead.', 00H
	ORG $+1
$SG100896 DB	'qRegisterNormalizedMetaType', 00H
	ORG $+4
$SG97842 DB	'C:\Qt\Qt5.9.8\5.9.8\msvc2015_64\include\QtCore/qmetatype'
	DB	'.h', 00H
	ORG $+5
$SG97843 DB	'qRegisterNormalizedMetaType was called with a not normal'
	DB	'ized type name, please call qRegisterMetaType instead.', 00H
	ORG $+1
$SG97844 DB	'qRegisterNormalizedMetaType', 00H
	ORG $+4
$SG102038 DB	'C:\Qt\Qt5.9.8\5.9.8\msvc2015_64\include\QtCore/qmetatype'
	DB	'.h', 00H
	ORG $+5
$SG102039 DB	'qRegisterNormalizedMetaType was called with a not normal'
	DB	'ized type name, please call qRegisterMetaType instead.', 00H
	ORG $+1
$SG102040 DB	'qRegisterNormalizedMetaType', 00H
	ORG $+4
$SG100006 DB	'C:\Qt\Qt5.9.8\5.9.8\msvc2015_64\include\QtCore/qmetatype'
	DB	'.h', 00H
	ORG $+5
$SG100007 DB	'qRegisterNormalizedMetaType was called with a not normal'
	DB	'ized type name, please call qRegisterMetaType instead.', 00H
	ORG $+1
$SG100008 DB	'qRegisterNormalizedMetaType', 00H
	ORG $+4
$SG98144 DB	'C:\Qt\Qt5.9.8\5.9.8\msvc2015_64\include\QtCore/qmetatype'
	DB	'.h', 00H
	ORG $+5
$SG98145 DB	'qRegisterNormalizedMetaType was called with a not normal'
	DB	'ized type name, please call qRegisterMetaType instead.', 00H
	ORG $+1
$SG98146 DB	'qRegisterNormalizedMetaType', 00H
	ORG $+4
$SG99226 DB	'C:\Qt\Qt5.9.8\5.9.8\msvc2015_64\include\QtCore/qmetatype'
	DB	'.h', 00H
	ORG $+5
$SG99227 DB	'qRegisterNormalizedMetaType was called with a not normal'
	DB	'ized type name, please call qRegisterMetaType instead.', 00H
	ORG $+1
$SG99228 DB	'qRegisterNormalizedMetaType', 00H
	ORG $+4
$SG101283 DB	'C:\Qt\Qt5.9.8\5.9.8\msvc2015_64\include\QtCore/qmetatype'
	DB	'.h', 00H
	ORG $+5
$SG101284 DB	'qRegisterNormalizedMetaType was called with a not normal'
	DB	'ized type name, please call qRegisterMetaType instead.', 00H
	ORG $+1
$SG101285 DB	'qRegisterNormalizedMetaType', 00H
CONST	ENDS
PUBLIC	?__empty_global_delete@@YAXPEAX@Z		; __empty_global_delete
PUBLIC	?__empty_global_delete@@YAXPEAX_K@Z		; __empty_global_delete
PUBLIC	??C?$QScopedPointer@VQObjectData@@U?$QScopedPointerDeleter@VQObjectData@@@@@@QEBAPEAVQObjectData@@XZ ; QScopedPointer<QObjectData,QScopedPointerDeleter<QObjectData> >::operator->
PUBLIC	?metaObject@socketServer@@UEBAPEBUQMetaObject@@XZ ; socketServer::metaObject
PUBLIC	?qt_metacast@socketServer@@UEAAPEAXPEBD@Z	; socketServer::qt_metacast
PUBLIC	?qt_metacall@socketServer@@UEAAHW4Call@QMetaObject@@HPEAPEAX@Z ; socketServer::qt_metacall
PUBLIC	?tr@socketServer@@SA?AVQString@@PEBD0H@Z	; socketServer::tr
PUBLIC	?trUtf8@socketServer@@SA?AVQString@@PEBD0H@Z	; socketServer::trUtf8
PUBLIC	?qt_static_metacall@socketServer@@CAXPEAVQObject@@W4Call@QMetaObject@@HPEAPEAX@Z ; socketServer::qt_static_metacall
PUBLIC	?signal_newConnect@socketServer@@QEAAXXZ	; socketServer::signal_newConnect
PUBLIC	?signal_disconnect@socketServer@@QEAAXXZ	; socketServer::signal_disconnect
PUBLIC	?signal_receiveDataAll@socketServer@@QEAAXVQByteArray@@@Z ; socketServer::signal_receiveDataAll
PUBLIC	?signal_beat@socketServer@@QEAAXXZ		; socketServer::signal_beat
PUBLIC	?signal_detectStart@socketServer@@QEAAXXZ	; socketServer::signal_detectStart
PUBLIC	?signal_detectStop@socketServer@@QEAAXXZ	; socketServer::signal_detectStop
PUBLIC	?signal_caliStart@socketServer@@QEAAXXZ		; socketServer::signal_caliStart
PUBLIC	?signal_caliStop@socketServer@@QEAAXXZ		; socketServer::signal_caliStop
PUBLIC	?signal_dataIn@socketServer@@QEAAXVQString@@H@Z	; socketServer::signal_dataIn
PUBLIC	?staticMetaObject@socketServer@@2UQMetaObject@@B ; socketServer::staticMetaObject
EXTRN	strcmp:PROC
EXTRN	__imp_?tr@QMetaObject@@QEBA?AVQString@@PEBD0H@Z:PROC
EXTRN	__imp_?activate@QMetaObject@@SAXPEAVQObject@@PEBU1@HPEAPEAX@Z:PROC
EXTRN	__imp_??0QByteArray@@QEAA@AEBV0@@Z:PROC
EXTRN	__imp_??1QByteArray@@QEAA@XZ:PROC
EXTRN	__imp_??0QString@@QEAA@AEBV0@@Z:PROC
EXTRN	__imp_??1QString@@QEAA@XZ:PROC
EXTRN	__imp_?dynamicMetaObject@QObjectData@@QEBAPEAUQMetaObject@@XZ:PROC
EXTRN	__imp_?qt_metacast@QObject@@UEAAPEAXPEBD@Z:PROC
EXTRN	__imp_?qt_metacall@QObject@@UEAAHW4Call@QMetaObject@@HPEAPEAX@Z:PROC
EXTRN	?slot_newClient@socketServer@@AEAAXXZ:PROC	; socketServer::slot_newClient
EXTRN	?slot_receiveData@socketServer@@AEAAXXZ:PROC	; socketServer::slot_receiveData
EXTRN	?slot_disconnected@socketServer@@AEAAXXZ:PROC	; socketServer::slot_disconnected
EXTRN	__CxxFrameHandler3:PROC
EXTRN	__GSHandlerCheck_EH:PROC
EXTRN	__security_check_cookie:PROC
EXTRN	__imp_?staticMetaObject@QObject@@2UQMetaObject@@B:BYTE
EXTRN	__ImageBase:BYTE
EXTRN	__security_cookie:QWORD
_BSS	SEGMENT
?staticMetaObject@socketServer@@2UQMetaObject@@B DB 030H DUP (?) ; socketServer::staticMetaObject
_BSS	ENDS
pdata	SEGMENT
$pdata$?metaObject@socketServer@@UEBAPEBUQMetaObject@@XZ DD imagerel $LN5
	DD	imagerel $LN5+88
	DD	imagerel $unwind$?metaObject@socketServer@@UEBAPEBUQMetaObject@@XZ
$pdata$?qt_metacast@socketServer@@UEAAPEAXPEBD@Z DD imagerel $LN8
	DD	imagerel $LN8+136
	DD	imagerel $unwind$?qt_metacast@socketServer@@UEAAPEAXPEBD@Z
$pdata$?qt_metacall@socketServer@@UEAAHW4Call@QMetaObject@@HPEAPEAX@Z DD imagerel $LN9
	DD	imagerel $LN9+174
	DD	imagerel $unwind$?qt_metacall@socketServer@@UEAAHW4Call@QMetaObject@@HPEAPEAX@Z
pdata	ENDS
;	COMDAT pdata
pdata	SEGMENT
$pdata$?tr@socketServer@@SA?AVQString@@PEBD0H@Z DD imagerel $LN5
	DD	imagerel $LN5+89
	DD	imagerel $unwind$?tr@socketServer@@SA?AVQString@@PEBD0H@Z
pdata	ENDS
;	COMDAT pdata
pdata	SEGMENT
$pdata$?trUtf8@socketServer@@SA?AVQString@@PEBD0H@Z DD imagerel $LN5
	DD	imagerel $LN5+89
	DD	imagerel $unwind$?trUtf8@socketServer@@SA?AVQString@@PEBD0H@Z
pdata	ENDS
pdata	SEGMENT
$pdata$?qt_static_metacall@socketServer@@CAXPEAVQObject@@W4Call@QMetaObject@@HPEAPEAX@Z DD imagerel $LN60
	DD	imagerel $LN60+1956
	DD	imagerel $unwind$?qt_static_metacall@socketServer@@CAXPEAVQObject@@W4Call@QMetaObject@@HPEAPEAX@Z
$pdata$?signal_newConnect@socketServer@@QEAAXXZ DD imagerel $LN3
	DD	imagerel $LN3+38
	DD	imagerel $unwind$?signal_newConnect@socketServer@@QEAAXXZ
$pdata$?signal_disconnect@socketServer@@QEAAXXZ DD imagerel $LN3
	DD	imagerel $LN3+41
	DD	imagerel $unwind$?signal_disconnect@socketServer@@QEAAXXZ
$pdata$?signal_receiveDataAll@socketServer@@QEAAXVQByteArray@@@Z DD imagerel $LN4
	DD	imagerel $LN4+88
	DD	imagerel $unwind$?signal_receiveDataAll@socketServer@@QEAAXVQByteArray@@@Z
pdata	ENDS
pdata	SEGMENT
$pdata$?dtor$0@?0??signal_receiveDataAll@socketServer@@QEAAXVQByteArray@@@Z@4HA DD imagerel ?dtor$0@?0??signal_receiveDataAll@socketServer@@QEAAXVQByteArray@@@Z@4HA
	DD	imagerel ?dtor$0@?0??signal_receiveDataAll@socketServer@@QEAAXVQByteArray@@@Z@4HA+25
	DD	imagerel $unwind$?dtor$0@?0??signal_receiveDataAll@socketServer@@QEAAXVQByteArray@@@Z@4HA
pdata	ENDS
pdata	SEGMENT
$pdata$?signal_beat@socketServer@@QEAAXXZ DD imagerel $LN3
	DD	imagerel $LN3+41
	DD	imagerel $unwind$?signal_beat@socketServer@@QEAAXXZ
$pdata$?signal_detectStart@socketServer@@QEAAXXZ DD imagerel $LN3
	DD	imagerel $LN3+41
	DD	imagerel $unwind$?signal_detectStart@socketServer@@QEAAXXZ
$pdata$?signal_detectStop@socketServer@@QEAAXXZ DD imagerel $LN3
	DD	imagerel $LN3+41
	DD	imagerel $unwind$?signal_detectStop@socketServer@@QEAAXXZ
$pdata$?signal_caliStart@socketServer@@QEAAXXZ DD imagerel $LN3
	DD	imagerel $LN3+41
	DD	imagerel $unwind$?signal_caliStart@socketServer@@QEAAXXZ
$pdata$?signal_caliStop@socketServer@@QEAAXXZ DD imagerel $LN3
	DD	imagerel $LN3+41
	DD	imagerel $unwind$?signal_caliStop@socketServer@@QEAAXXZ
$pdata$?signal_dataIn@socketServer@@QEAAXVQString@@H@Z DD imagerel $LN4
	DD	imagerel $LN4+131
	DD	imagerel $unwind$?signal_dataIn@socketServer@@QEAAXVQString@@H@Z
pdata	ENDS
pdata	SEGMENT
$pdata$?dtor$0@?0??signal_dataIn@socketServer@@QEAAXVQString@@H@Z@4HA DD imagerel ?dtor$0@?0??signal_dataIn@socketServer@@QEAAXVQString@@H@Z@4HA
	DD	imagerel ?dtor$0@?0??signal_dataIn@socketServer@@QEAAXVQString@@H@Z@4HA+25
	DD	imagerel $unwind$?dtor$0@?0??signal_dataIn@socketServer@@QEAAXVQString@@H@Z@4HA
pdata	ENDS
CRT$XCU	SEGMENT
??staticMetaObject$initializer$@socketServer@@2P6AXXZEA@@3P6AXXZEA DQ FLAT:??__E?staticMetaObject@socketServer@@2UQMetaObject@@B@@YAXXZ ; ??staticMetaObject$initializer$@socketServer@@2P6AXXZEA@@3P6AXXZEA
CRT$XCU	ENDS
CONST	SEGMENT
	ORG $+4
$cppxdata$?signal_receiveDataAll@socketServer@@QEAAXVQByteArray@@@Z DD 019930522H
	DD	01H
	DD	imagerel $stateUnwindMap$?signal_receiveDataAll@socketServer@@QEAAXVQByteArray@@@Z
	DD	00H
	DD	00H
	DD	03H
	DD	imagerel $ip2state$?signal_receiveDataAll@socketServer@@QEAAXVQByteArray@@@Z
	DD	020H
	DD	00H
	DD	01H
$cppxdata$?signal_dataIn@socketServer@@QEAAXVQString@@H@Z DD 019930522H
	DD	01H
	DD	imagerel $stateUnwindMap$?signal_dataIn@socketServer@@QEAAXVQString@@H@Z
	DD	00H
	DD	00H
	DD	03H
	DD	imagerel $ip2state$?signal_dataIn@socketServer@@QEAAXVQString@@H@Z
	DD	020H
	DD	00H
	DD	01H
CONST	ENDS
;	COMDAT xdata
xdata	SEGMENT
$unwind$?trUtf8@socketServer@@SA?AVQString@@PEBD0H@Z DD 011801H
	DD	08218H
xdata	ENDS
;	COMDAT xdata
xdata	SEGMENT
$unwind$?tr@socketServer@@SA?AVQString@@PEBD0H@Z DD 011801H
	DD	08218H
xdata	ENDS
xdata	SEGMENT
$unwind$?metaObject@socketServer@@UEBAPEBUQMetaObject@@XZ DD 010901H
	DD	06209H
$unwind$?qt_metacast@socketServer@@UEAAPEAXPEBD@Z DD 010e01H
	DD	0620eH
$unwind$?qt_metacall@socketServer@@UEAAHW4Call@QMetaObject@@HPEAPEAX@Z DD 011701H
	DD	04217H
$unwind$?qt_static_metacall@socketServer@@CAXPEAVQObject@@W4Call@QMetaObject@@HPEAPEAX@Z DD 021a01H
	DD	025011aH
$unwind$?signal_newConnect@socketServer@@QEAAXXZ DD 010901H
	DD	04209H
$unwind$?signal_disconnect@socketServer@@QEAAXXZ DD 010901H
	DD	04209H
$unwind$?signal_receiveDataAll@socketServer@@QEAAXVQByteArray@@@Z DD 011711H
	DD	0820eH
	DD	imagerel __CxxFrameHandler3
	DD	imagerel $cppxdata$?signal_receiveDataAll@socketServer@@QEAAXVQByteArray@@@Z
$stateUnwindMap$?signal_receiveDataAll@socketServer@@QEAAXVQByteArray@@@Z DD 0ffffffffH
	DD	imagerel ?dtor$0@?0??signal_receiveDataAll@socketServer@@QEAAXVQByteArray@@@Z@4HA
$ip2state$?signal_receiveDataAll@socketServer@@QEAAXVQByteArray@@@Z DD imagerel ?signal_receiveDataAll@socketServer@@QEAAXVQByteArray@@@Z
	DD	0ffffffffH
	DD	imagerel ?signal_receiveDataAll@socketServer@@QEAAXVQByteArray@@@Z+23
	DD	00H
	DD	imagerel ?signal_receiveDataAll@socketServer@@QEAAXVQByteArray@@@Z+72
	DD	0ffffffffH
$unwind$?dtor$0@?0??signal_receiveDataAll@socketServer@@QEAAXVQByteArray@@@Z@4HA DD 020601H
	DD	050023206H
$unwind$?signal_beat@socketServer@@QEAAXXZ DD 010901H
	DD	04209H
$unwind$?signal_detectStart@socketServer@@QEAAXXZ DD 010901H
	DD	04209H
$unwind$?signal_detectStop@socketServer@@QEAAXXZ DD 010901H
	DD	04209H
$unwind$?signal_caliStart@socketServer@@QEAAXXZ DD 010901H
	DD	04209H
$unwind$?signal_caliStop@socketServer@@QEAAXXZ DD 010901H
	DD	04209H
$unwind$?signal_dataIn@socketServer@@QEAAXVQString@@H@Z DD 012b19H
	DD	0a213H
	DD	imagerel __GSHandlerCheck_EH
	DD	imagerel $cppxdata$?signal_dataIn@socketServer@@QEAAXVQString@@H@Z
	DD	042H
$stateUnwindMap$?signal_dataIn@socketServer@@QEAAXVQString@@H@Z DD 0ffffffffH
	DD	imagerel ?dtor$0@?0??signal_dataIn@socketServer@@QEAAXVQString@@H@Z@4HA
$ip2state$?signal_dataIn@socketServer@@QEAAXVQString@@H@Z DD imagerel ?signal_dataIn@socketServer@@QEAAXVQString@@H@Z
	DD	0ffffffffH
	DD	imagerel ?signal_dataIn@socketServer@@QEAAXVQString@@H@Z+43
	DD	00H
	DD	imagerel ?signal_dataIn@socketServer@@QEAAXVQString@@H@Z+102
	DD	0ffffffffH
$unwind$?dtor$0@?0??signal_dataIn@socketServer@@QEAAXVQString@@H@Z@4HA DD 020601H
	DD	050023206H
xdata	ENDS
; Function compile flags: /Odtp
;	COMDAT ??__E?staticMetaObject@socketServer@@2UQMetaObject@@B@@YAXXZ
text$di	SEGMENT
??__E?staticMetaObject@socketServer@@2UQMetaObject@@B@@YAXXZ PROC ; `dynamic initializer for 'socketServer::staticMetaObject'', COMDAT
; File f:\code\sghang\socketserver\generatedfiles\debug\moc_socketserver.cpp
; Line 199
	mov	rax, QWORD PTR __imp_?staticMetaObject@QObject@@2UQMetaObject@@B
	mov	QWORD PTR ?staticMetaObject@socketServer@@2UQMetaObject@@B, rax
	lea	rax, OFFSET FLAT:?qt_meta_stringdata_socketServer@@3Uqt_meta_stringdata_socketServer_t@@B
	mov	QWORD PTR ?staticMetaObject@socketServer@@2UQMetaObject@@B+8, rax
; Line 200
	lea	rax, OFFSET FLAT:?qt_meta_data_socketServer@@3QBIB
	mov	QWORD PTR ?staticMetaObject@socketServer@@2UQMetaObject@@B+16, rax
	lea	rax, OFFSET FLAT:?qt_static_metacall@socketServer@@CAXPEAVQObject@@W4Call@QMetaObject@@HPEAPEAX@Z ; socketServer::qt_static_metacall
	mov	QWORD PTR ?staticMetaObject@socketServer@@2UQMetaObject@@B+24, rax
	mov	QWORD PTR ?staticMetaObject@socketServer@@2UQMetaObject@@B+32, 0
	mov	QWORD PTR ?staticMetaObject@socketServer@@2UQMetaObject@@B+40, 0
	ret	0
??__E?staticMetaObject@socketServer@@2UQMetaObject@@B@@YAXXZ ENDP ; `dynamic initializer for 'socketServer::staticMetaObject''
text$di	ENDS
; Function compile flags: /Odtp
_TEXT	SEGMENT
$T1 = 32
_a$ = 40
__$ArrayPad$ = 64
this$ = 96
_t1$ = 104
_t2$ = 112
?signal_dataIn@socketServer@@QEAAXVQString@@H@Z PROC	; socketServer::signal_dataIn
; File f:\code\sghang\socketserver\generatedfiles\debug\moc_socketserver.cpp
; Line 287
$LN4:
	mov	DWORD PTR [rsp+24], r8d
	mov	QWORD PTR [rsp+16], rdx
	mov	QWORD PTR [rsp+8], rcx
	sub	rsp, 88					; 00000058H
	mov	QWORD PTR $T1[rsp], -2
	mov	rax, QWORD PTR __security_cookie
	xor	rax, rsp
	mov	QWORD PTR __$ArrayPad$[rsp], rax
; Line 288
	mov	QWORD PTR _a$[rsp], 0
	mov	rax, QWORD PTR _t1$[rsp]
	mov	QWORD PTR _a$[rsp+8], rax
	lea	rax, QWORD PTR _t2$[rsp]
	mov	QWORD PTR _a$[rsp+16], rax
; Line 289
	lea	r9, QWORD PTR _a$[rsp]
	mov	r8d, 8
	lea	rdx, OFFSET FLAT:?staticMetaObject@socketServer@@2UQMetaObject@@B ; socketServer::staticMetaObject
	mov	rcx, QWORD PTR this$[rsp]
	call	QWORD PTR __imp_?activate@QMetaObject@@SAXPEAVQObject@@PEBU1@HPEAPEAX@Z
	npad	1
; Line 290
	mov	rcx, QWORD PTR _t1$[rsp]
	call	QWORD PTR __imp_??1QString@@QEAA@XZ
	mov	rcx, QWORD PTR __$ArrayPad$[rsp]
	xor	rcx, rsp
	call	__security_check_cookie
	add	rsp, 88					; 00000058H
	ret	0
?signal_dataIn@socketServer@@QEAAXVQString@@H@Z ENDP	; socketServer::signal_dataIn
_TEXT	ENDS
text$x	SEGMENT
$T1 = 32
_a$ = 40
__$ArrayPad$ = 64
this$ = 96
_t1$ = 104
_t2$ = 112
?dtor$0@?0??signal_dataIn@socketServer@@QEAAXVQString@@H@Z@4HA PROC ; `socketServer::signal_dataIn'::`1'::dtor$0
	push	rbp
	sub	rsp, 32					; 00000020H
	mov	rbp, rdx
	mov	rcx, QWORD PTR _t1$[rbp]
	call	QWORD PTR __imp_??1QString@@QEAA@XZ
	add	rsp, 32					; 00000020H
	pop	rbp
	ret	0
?dtor$0@?0??signal_dataIn@socketServer@@QEAAXVQString@@H@Z@4HA ENDP ; `socketServer::signal_dataIn'::`1'::dtor$0
text$x	ENDS
; Function compile flags: /Odtp
text$x	SEGMENT
$T1 = 32
_a$ = 40
__$ArrayPad$ = 64
this$ = 96
_t1$ = 104
_t2$ = 112
?dtor$0@?0??signal_dataIn@socketServer@@QEAAXVQString@@H@Z@4HA PROC ; `socketServer::signal_dataIn'::`1'::dtor$0
	push	rbp
	sub	rsp, 32					; 00000020H
	mov	rbp, rdx
	mov	rcx, QWORD PTR _t1$[rbp]
	call	QWORD PTR __imp_??1QString@@QEAA@XZ
	add	rsp, 32					; 00000020H
	pop	rbp
	ret	0
?dtor$0@?0??signal_dataIn@socketServer@@QEAAXVQString@@H@Z@4HA ENDP ; `socketServer::signal_dataIn'::`1'::dtor$0
text$x	ENDS
; Function compile flags: /Odtp
_TEXT	SEGMENT
this$ = 48
?signal_caliStop@socketServer@@QEAAXXZ PROC		; socketServer::signal_caliStop
; File f:\code\sghang\socketserver\generatedfiles\debug\moc_socketserver.cpp
; Line 281
$LN3:
	mov	QWORD PTR [rsp+8], rcx
	sub	rsp, 40					; 00000028H
; Line 282
	xor	r9d, r9d
	mov	r8d, 7
	lea	rdx, OFFSET FLAT:?staticMetaObject@socketServer@@2UQMetaObject@@B ; socketServer::staticMetaObject
	mov	rcx, QWORD PTR this$[rsp]
	call	QWORD PTR __imp_?activate@QMetaObject@@SAXPEAVQObject@@PEBU1@HPEAPEAX@Z
; Line 283
	add	rsp, 40					; 00000028H
	ret	0
?signal_caliStop@socketServer@@QEAAXXZ ENDP		; socketServer::signal_caliStop
_TEXT	ENDS
; Function compile flags: /Odtp
_TEXT	SEGMENT
this$ = 48
?signal_caliStart@socketServer@@QEAAXXZ PROC		; socketServer::signal_caliStart
; File f:\code\sghang\socketserver\generatedfiles\debug\moc_socketserver.cpp
; Line 275
$LN3:
	mov	QWORD PTR [rsp+8], rcx
	sub	rsp, 40					; 00000028H
; Line 276
	xor	r9d, r9d
	mov	r8d, 6
	lea	rdx, OFFSET FLAT:?staticMetaObject@socketServer@@2UQMetaObject@@B ; socketServer::staticMetaObject
	mov	rcx, QWORD PTR this$[rsp]
	call	QWORD PTR __imp_?activate@QMetaObject@@SAXPEAVQObject@@PEBU1@HPEAPEAX@Z
; Line 277
	add	rsp, 40					; 00000028H
	ret	0
?signal_caliStart@socketServer@@QEAAXXZ ENDP		; socketServer::signal_caliStart
_TEXT	ENDS
; Function compile flags: /Odtp
_TEXT	SEGMENT
this$ = 48
?signal_detectStop@socketServer@@QEAAXXZ PROC		; socketServer::signal_detectStop
; File f:\code\sghang\socketserver\generatedfiles\debug\moc_socketserver.cpp
; Line 269
$LN3:
	mov	QWORD PTR [rsp+8], rcx
	sub	rsp, 40					; 00000028H
; Line 270
	xor	r9d, r9d
	mov	r8d, 5
	lea	rdx, OFFSET FLAT:?staticMetaObject@socketServer@@2UQMetaObject@@B ; socketServer::staticMetaObject
	mov	rcx, QWORD PTR this$[rsp]
	call	QWORD PTR __imp_?activate@QMetaObject@@SAXPEAVQObject@@PEBU1@HPEAPEAX@Z
; Line 271
	add	rsp, 40					; 00000028H
	ret	0
?signal_detectStop@socketServer@@QEAAXXZ ENDP		; socketServer::signal_detectStop
_TEXT	ENDS
; Function compile flags: /Odtp
_TEXT	SEGMENT
this$ = 48
?signal_detectStart@socketServer@@QEAAXXZ PROC		; socketServer::signal_detectStart
; File f:\code\sghang\socketserver\generatedfiles\debug\moc_socketserver.cpp
; Line 263
$LN3:
	mov	QWORD PTR [rsp+8], rcx
	sub	rsp, 40					; 00000028H
; Line 264
	xor	r9d, r9d
	mov	r8d, 4
	lea	rdx, OFFSET FLAT:?staticMetaObject@socketServer@@2UQMetaObject@@B ; socketServer::staticMetaObject
	mov	rcx, QWORD PTR this$[rsp]
	call	QWORD PTR __imp_?activate@QMetaObject@@SAXPEAVQObject@@PEBU1@HPEAPEAX@Z
; Line 265
	add	rsp, 40					; 00000028H
	ret	0
?signal_detectStart@socketServer@@QEAAXXZ ENDP		; socketServer::signal_detectStart
_TEXT	ENDS
; Function compile flags: /Odtp
_TEXT	SEGMENT
this$ = 48
?signal_beat@socketServer@@QEAAXXZ PROC			; socketServer::signal_beat
; File f:\code\sghang\socketserver\generatedfiles\debug\moc_socketserver.cpp
; Line 257
$LN3:
	mov	QWORD PTR [rsp+8], rcx
	sub	rsp, 40					; 00000028H
; Line 258
	xor	r9d, r9d
	mov	r8d, 3
	lea	rdx, OFFSET FLAT:?staticMetaObject@socketServer@@2UQMetaObject@@B ; socketServer::staticMetaObject
	mov	rcx, QWORD PTR this$[rsp]
	call	QWORD PTR __imp_?activate@QMetaObject@@SAXPEAVQObject@@PEBU1@HPEAPEAX@Z
; Line 259
	add	rsp, 40					; 00000028H
	ret	0
?signal_beat@socketServer@@QEAAXXZ ENDP			; socketServer::signal_beat
_TEXT	ENDS
; Function compile flags: /Odtp
_TEXT	SEGMENT
$T1 = 32
_a$ = 40
this$ = 80
_t1$ = 88
?signal_receiveDataAll@socketServer@@QEAAXVQByteArray@@@Z PROC ; socketServer::signal_receiveDataAll
; File f:\code\sghang\socketserver\generatedfiles\debug\moc_socketserver.cpp
; Line 250
$LN4:
	mov	QWORD PTR [rsp+16], rdx
	mov	QWORD PTR [rsp+8], rcx
	sub	rsp, 72					; 00000048H
	mov	QWORD PTR $T1[rsp], -2
; Line 251
	mov	QWORD PTR _a$[rsp], 0
	mov	rax, QWORD PTR _t1$[rsp]
	mov	QWORD PTR _a$[rsp+8], rax
; Line 252
	lea	r9, QWORD PTR _a$[rsp]
	mov	r8d, 2
	lea	rdx, OFFSET FLAT:?staticMetaObject@socketServer@@2UQMetaObject@@B ; socketServer::staticMetaObject
	mov	rcx, QWORD PTR this$[rsp]
	call	QWORD PTR __imp_?activate@QMetaObject@@SAXPEAVQObject@@PEBU1@HPEAPEAX@Z
	npad	1
; Line 253
	mov	rcx, QWORD PTR _t1$[rsp]
	call	QWORD PTR __imp_??1QByteArray@@QEAA@XZ
	add	rsp, 72					; 00000048H
	ret	0
?signal_receiveDataAll@socketServer@@QEAAXVQByteArray@@@Z ENDP ; socketServer::signal_receiveDataAll
_TEXT	ENDS
text$x	SEGMENT
$T1 = 32
_a$ = 40
this$ = 80
_t1$ = 88
?dtor$0@?0??signal_receiveDataAll@socketServer@@QEAAXVQByteArray@@@Z@4HA PROC ; `socketServer::signal_receiveDataAll'::`1'::dtor$0
	push	rbp
	sub	rsp, 32					; 00000020H
	mov	rbp, rdx
	mov	rcx, QWORD PTR _t1$[rbp]
	call	QWORD PTR __imp_??1QByteArray@@QEAA@XZ
	add	rsp, 32					; 00000020H
	pop	rbp
	ret	0
?dtor$0@?0??signal_receiveDataAll@socketServer@@QEAAXVQByteArray@@@Z@4HA ENDP ; `socketServer::signal_receiveDataAll'::`1'::dtor$0
text$x	ENDS
; Function compile flags: /Odtp
text$x	SEGMENT
$T1 = 32
_a$ = 40
this$ = 80
_t1$ = 88
?dtor$0@?0??signal_receiveDataAll@socketServer@@QEAAXVQByteArray@@@Z@4HA PROC ; `socketServer::signal_receiveDataAll'::`1'::dtor$0
	push	rbp
	sub	rsp, 32					; 00000020H
	mov	rbp, rdx
	mov	rcx, QWORD PTR _t1$[rbp]
	call	QWORD PTR __imp_??1QByteArray@@QEAA@XZ
	add	rsp, 32					; 00000020H
	pop	rbp
	ret	0
?dtor$0@?0??signal_receiveDataAll@socketServer@@QEAAXVQByteArray@@@Z@4HA ENDP ; `socketServer::signal_receiveDataAll'::`1'::dtor$0
text$x	ENDS
; Function compile flags: /Odtp
_TEXT	SEGMENT
this$ = 48
?signal_disconnect@socketServer@@QEAAXXZ PROC		; socketServer::signal_disconnect
; File f:\code\sghang\socketserver\generatedfiles\debug\moc_socketserver.cpp
; Line 244
$LN3:
	mov	QWORD PTR [rsp+8], rcx
	sub	rsp, 40					; 00000028H
; Line 245
	xor	r9d, r9d
	mov	r8d, 1
	lea	rdx, OFFSET FLAT:?staticMetaObject@socketServer@@2UQMetaObject@@B ; socketServer::staticMetaObject
	mov	rcx, QWORD PTR this$[rsp]
	call	QWORD PTR __imp_?activate@QMetaObject@@SAXPEAVQObject@@PEBU1@HPEAPEAX@Z
; Line 246
	add	rsp, 40					; 00000028H
	ret	0
?signal_disconnect@socketServer@@QEAAXXZ ENDP		; socketServer::signal_disconnect
_TEXT	ENDS
; Function compile flags: /Odtp
_TEXT	SEGMENT
this$ = 48
?signal_newConnect@socketServer@@QEAAXXZ PROC		; socketServer::signal_newConnect
; File f:\code\sghang\socketserver\generatedfiles\debug\moc_socketserver.cpp
; Line 238
$LN3:
	mov	QWORD PTR [rsp+8], rcx
	sub	rsp, 40					; 00000028H
; Line 239
	xor	r9d, r9d
	xor	r8d, r8d
	lea	rdx, OFFSET FLAT:?staticMetaObject@socketServer@@2UQMetaObject@@B ; socketServer::staticMetaObject
	mov	rcx, QWORD PTR this$[rsp]
	call	QWORD PTR __imp_?activate@QMetaObject@@SAXPEAVQObject@@PEBU1@HPEAPEAX@Z
; Line 240
	add	rsp, 40					; 00000028H
	ret	0
?signal_newConnect@socketServer@@QEAAXXZ ENDP		; socketServer::signal_newConnect
_TEXT	ENDS
; Function compile flags: /Odtp
_TEXT	SEGMENT
_t$1 = 32
result$2 = 40
tv69 = 48
tv156 = 52
tv170 = 56
tv184 = 60
tv198 = 64
tv212 = 68
tv258 = 72
tv272 = 76
tv286 = 80
tv300 = 84
$T3 = 88
tv303 = 96
$T4 = 104
tv92 = 112
tv305 = 120
$T5 = 128
$T6 = 144
$T7 = 160
$T8 = 176
$T9 = 192
$T10 = 208
$T11 = 224
$T12 = 240
$T13 = 256
$T14 = 272
$T15 = 280
_o$ = 304
_c$ = 312
_id$ = 320
_a$ = 328
?qt_static_metacall@socketServer@@CAXPEAVQObject@@W4Call@QMetaObject@@HPEAPEAX@Z PROC ; socketServer::qt_static_metacall
; File f:\code\sghang\socketserver\generatedfiles\debug\moc_socketserver.cpp
; Line 111
$LN60:
	mov	QWORD PTR [rsp+32], r9
	mov	DWORD PTR [rsp+24], r8d
	mov	DWORD PTR [rsp+16], edx
	mov	QWORD PTR [rsp+8], rcx
	sub	rsp, 296				; 00000128H
; Line 112
	cmp	DWORD PTR _c$[rsp], 0
	jne	$LN4@qt_static_
; Line 113
	mov	rax, QWORD PTR _o$[rsp]
	mov	QWORD PTR _t$1[rsp], rax
; Line 115
	mov	eax, DWORD PTR _id$[rsp]
	mov	DWORD PTR tv69[rsp], eax
	cmp	DWORD PTR tv69[rsp], 11
	ja	$LN2@qt_static_
	movsxd	rax, DWORD PTR tv69[rsp]
	lea	rcx, OFFSET FLAT:__ImageBase
	mov	eax, DWORD PTR $LN59@qt_static_[rcx+rax*4]
	add	rax, rcx
	jmp	rax
$LN6@qt_static_:
; Line 116
	mov	rcx, QWORD PTR _t$1[rsp]
	call	?signal_newConnect@socketServer@@QEAAXXZ ; socketServer::signal_newConnect
	jmp	$LN2@qt_static_
$LN7@qt_static_:
; Line 117
	mov	rcx, QWORD PTR _t$1[rsp]
	call	?signal_disconnect@socketServer@@QEAAXXZ ; socketServer::signal_disconnect
	jmp	$LN2@qt_static_
$LN8@qt_static_:
; Line 118
	lea	rax, QWORD PTR $T14[rsp]
	mov	QWORD PTR $T3[rsp], rax
	mov	eax, 8
	imul	rax, rax, 1
	mov	rcx, QWORD PTR _a$[rsp]
	mov	rdx, QWORD PTR [rcx+rax]
	mov	rcx, QWORD PTR $T3[rsp]
	call	QWORD PTR __imp_??0QByteArray@@QEAA@AEBV0@@Z
	mov	QWORD PTR tv303[rsp], rax
	mov	rdx, QWORD PTR tv303[rsp]
	mov	rcx, QWORD PTR _t$1[rsp]
	call	?signal_receiveDataAll@socketServer@@QEAAXVQByteArray@@@Z ; socketServer::signal_receiveDataAll
	jmp	$LN2@qt_static_
$LN9@qt_static_:
; Line 119
	mov	rcx, QWORD PTR _t$1[rsp]
	call	?signal_beat@socketServer@@QEAAXXZ	; socketServer::signal_beat
	jmp	$LN2@qt_static_
$LN10@qt_static_:
; Line 120
	mov	rcx, QWORD PTR _t$1[rsp]
	call	?signal_detectStart@socketServer@@QEAAXXZ ; socketServer::signal_detectStart
	jmp	$LN2@qt_static_
$LN11@qt_static_:
; Line 121
	mov	rcx, QWORD PTR _t$1[rsp]
	call	?signal_detectStop@socketServer@@QEAAXXZ ; socketServer::signal_detectStop
	jmp	$LN2@qt_static_
$LN12@qt_static_:
; Line 122
	mov	rcx, QWORD PTR _t$1[rsp]
	call	?signal_caliStart@socketServer@@QEAAXXZ	; socketServer::signal_caliStart
	jmp	$LN2@qt_static_
$LN13@qt_static_:
; Line 123
	mov	rcx, QWORD PTR _t$1[rsp]
	call	?signal_caliStop@socketServer@@QEAAXXZ	; socketServer::signal_caliStop
	jmp	$LN2@qt_static_
$LN14@qt_static_:
; Line 124
	lea	rax, QWORD PTR $T15[rsp]
	mov	QWORD PTR $T4[rsp], rax
	mov	eax, 8
	imul	rax, rax, 2
	mov	rcx, QWORD PTR _a$[rsp]
	mov	rax, QWORD PTR [rcx+rax]
	mov	QWORD PTR tv92[rsp], rax
	mov	ecx, 8
	imul	rcx, rcx, 1
	mov	rdx, QWORD PTR _a$[rsp]
	mov	rdx, QWORD PTR [rdx+rcx]
	mov	rcx, QWORD PTR $T4[rsp]
	call	QWORD PTR __imp_??0QString@@QEAA@AEBV0@@Z
	mov	QWORD PTR tv305[rsp], rax
	mov	rax, QWORD PTR tv92[rsp]
	mov	r8d, DWORD PTR [rax]
	mov	rdx, QWORD PTR tv305[rsp]
	mov	rcx, QWORD PTR _t$1[rsp]
	call	?signal_dataIn@socketServer@@QEAAXVQString@@H@Z ; socketServer::signal_dataIn
	jmp	SHORT $LN2@qt_static_
$LN15@qt_static_:
; Line 125
	mov	rcx, QWORD PTR _t$1[rsp]
	call	?slot_newClient@socketServer@@AEAAXXZ	; socketServer::slot_newClient
	jmp	SHORT $LN2@qt_static_
$LN16@qt_static_:
; Line 126
	mov	rcx, QWORD PTR _t$1[rsp]
	call	?slot_receiveData@socketServer@@AEAAXXZ	; socketServer::slot_receiveData
	jmp	SHORT $LN2@qt_static_
$LN17@qt_static_:
; Line 127
	mov	rcx, QWORD PTR _t$1[rsp]
	call	?slot_disconnected@socketServer@@AEAAXXZ ; socketServer::slot_disconnected
$LN2@qt_static_:
; Line 130
	jmp	$LN1@qt_static_
$LN4@qt_static_:
	cmp	DWORD PTR _c$[rsp], 10
	jne	$LN1@qt_static_
; Line 131
	mov	eax, 8
	imul	rax, rax, 0
	mov	rcx, QWORD PTR _a$[rsp]
	mov	rax, QWORD PTR [rcx+rax]
	mov	QWORD PTR result$2[rsp], rax
; Line 134
	lea	rax, OFFSET FLAT:?signal_newConnect@socketServer@@QEAAXXZ ; socketServer::signal_newConnect
	mov	QWORD PTR $T5[rsp], rax
	mov	DWORD PTR $T5[rsp+8], 0
	mov	eax, 8
	imul	rax, rax, 1
	mov	rcx, QWORD PTR _a$[rsp]
	mov	rax, QWORD PTR [rcx+rax]
	mov	rcx, QWORD PTR $T5[rsp]
	cmp	QWORD PTR [rax], rcx
	jne	SHORT $LN31@qt_static_
	mov	eax, 8
	imul	rax, rax, 1
	mov	rcx, QWORD PTR _a$[rsp]
	mov	rax, QWORD PTR [rcx+rax]
	cmp	QWORD PTR [rax], 0
	je	SHORT $LN30@qt_static_
	mov	eax, 8
	imul	rax, rax, 1
	mov	rcx, QWORD PTR _a$[rsp]
	mov	rax, QWORD PTR [rcx+rax]
	mov	ecx, DWORD PTR $T5[rsp+8]
	cmp	DWORD PTR [rax+8], ecx
	jne	SHORT $LN31@qt_static_
$LN30@qt_static_:
	mov	DWORD PTR tv156[rsp], 1
	jmp	SHORT $LN32@qt_static_
$LN31@qt_static_:
	mov	DWORD PTR tv156[rsp], 0
$LN32@qt_static_:
	cmp	DWORD PTR tv156[rsp], 0
	je	SHORT $LN20@qt_static_
; Line 135
	mov	rax, QWORD PTR result$2[rsp]
	mov	DWORD PTR [rax], 0
; Line 136
	jmp	$LN1@qt_static_
$LN20@qt_static_:
; Line 141
	lea	rax, OFFSET FLAT:?signal_disconnect@socketServer@@QEAAXXZ ; socketServer::signal_disconnect
	mov	QWORD PTR $T6[rsp], rax
	mov	DWORD PTR $T6[rsp+8], 0
	mov	eax, 8
	imul	rax, rax, 1
	mov	rcx, QWORD PTR _a$[rsp]
	mov	rax, QWORD PTR [rcx+rax]
	mov	rcx, QWORD PTR $T6[rsp]
	cmp	QWORD PTR [rax], rcx
	jne	SHORT $LN34@qt_static_
	mov	eax, 8
	imul	rax, rax, 1
	mov	rcx, QWORD PTR _a$[rsp]
	mov	rax, QWORD PTR [rcx+rax]
	cmp	QWORD PTR [rax], 0
	je	SHORT $LN33@qt_static_
	mov	eax, 8
	imul	rax, rax, 1
	mov	rcx, QWORD PTR _a$[rsp]
	mov	rax, QWORD PTR [rcx+rax]
	mov	ecx, DWORD PTR $T6[rsp+8]
	cmp	DWORD PTR [rax+8], ecx
	jne	SHORT $LN34@qt_static_
$LN33@qt_static_:
	mov	DWORD PTR tv170[rsp], 1
	jmp	SHORT $LN35@qt_static_
$LN34@qt_static_:
	mov	DWORD PTR tv170[rsp], 0
$LN35@qt_static_:
	cmp	DWORD PTR tv170[rsp], 0
	je	SHORT $LN21@qt_static_
; Line 142
	mov	rax, QWORD PTR result$2[rsp]
	mov	DWORD PTR [rax], 1
; Line 143
	jmp	$LN1@qt_static_
$LN21@qt_static_:
; Line 148
	lea	rax, OFFSET FLAT:?signal_receiveDataAll@socketServer@@QEAAXVQByteArray@@@Z ; socketServer::signal_receiveDataAll
	mov	QWORD PTR $T7[rsp], rax
	mov	DWORD PTR $T7[rsp+8], 0
	mov	eax, 8
	imul	rax, rax, 1
	mov	rcx, QWORD PTR _a$[rsp]
	mov	rax, QWORD PTR [rcx+rax]
	mov	rcx, QWORD PTR $T7[rsp]
	cmp	QWORD PTR [rax], rcx
	jne	SHORT $LN37@qt_static_
	mov	eax, 8
	imul	rax, rax, 1
	mov	rcx, QWORD PTR _a$[rsp]
	mov	rax, QWORD PTR [rcx+rax]
	cmp	QWORD PTR [rax], 0
	je	SHORT $LN36@qt_static_
	mov	eax, 8
	imul	rax, rax, 1
	mov	rcx, QWORD PTR _a$[rsp]
	mov	rax, QWORD PTR [rcx+rax]
	mov	ecx, DWORD PTR $T7[rsp+8]
	cmp	DWORD PTR [rax+8], ecx
	jne	SHORT $LN37@qt_static_
$LN36@qt_static_:
	mov	DWORD PTR tv184[rsp], 1
	jmp	SHORT $LN38@qt_static_
$LN37@qt_static_:
	mov	DWORD PTR tv184[rsp], 0
$LN38@qt_static_:
	cmp	DWORD PTR tv184[rsp], 0
	je	SHORT $LN22@qt_static_
; Line 149
	mov	rax, QWORD PTR result$2[rsp]
	mov	DWORD PTR [rax], 2
; Line 150
	jmp	$LN1@qt_static_
$LN22@qt_static_:
; Line 155
	lea	rax, OFFSET FLAT:?signal_beat@socketServer@@QEAAXXZ ; socketServer::signal_beat
	mov	QWORD PTR $T8[rsp], rax
	mov	DWORD PTR $T8[rsp+8], 0
	mov	eax, 8
	imul	rax, rax, 1
	mov	rcx, QWORD PTR _a$[rsp]
	mov	rax, QWORD PTR [rcx+rax]
	mov	rcx, QWORD PTR $T8[rsp]
	cmp	QWORD PTR [rax], rcx
	jne	SHORT $LN40@qt_static_
	mov	eax, 8
	imul	rax, rax, 1
	mov	rcx, QWORD PTR _a$[rsp]
	mov	rax, QWORD PTR [rcx+rax]
	cmp	QWORD PTR [rax], 0
	je	SHORT $LN39@qt_static_
	mov	eax, 8
	imul	rax, rax, 1
	mov	rcx, QWORD PTR _a$[rsp]
	mov	rax, QWORD PTR [rcx+rax]
	mov	ecx, DWORD PTR $T8[rsp+8]
	cmp	DWORD PTR [rax+8], ecx
	jne	SHORT $LN40@qt_static_
$LN39@qt_static_:
	mov	DWORD PTR tv198[rsp], 1
	jmp	SHORT $LN41@qt_static_
$LN40@qt_static_:
	mov	DWORD PTR tv198[rsp], 0
$LN41@qt_static_:
	cmp	DWORD PTR tv198[rsp], 0
	je	SHORT $LN23@qt_static_
; Line 156
	mov	rax, QWORD PTR result$2[rsp]
	mov	DWORD PTR [rax], 3
; Line 157
	jmp	$LN1@qt_static_
$LN23@qt_static_:
; Line 162
	lea	rax, OFFSET FLAT:?signal_detectStart@socketServer@@QEAAXXZ ; socketServer::signal_detectStart
	mov	QWORD PTR $T9[rsp], rax
	mov	DWORD PTR $T9[rsp+8], 0
	mov	eax, 8
	imul	rax, rax, 1
	mov	rcx, QWORD PTR _a$[rsp]
	mov	rax, QWORD PTR [rcx+rax]
	mov	rcx, QWORD PTR $T9[rsp]
	cmp	QWORD PTR [rax], rcx
	jne	SHORT $LN43@qt_static_
	mov	eax, 8
	imul	rax, rax, 1
	mov	rcx, QWORD PTR _a$[rsp]
	mov	rax, QWORD PTR [rcx+rax]
	cmp	QWORD PTR [rax], 0
	je	SHORT $LN42@qt_static_
	mov	eax, 8
	imul	rax, rax, 1
	mov	rcx, QWORD PTR _a$[rsp]
	mov	rax, QWORD PTR [rcx+rax]
	mov	ecx, DWORD PTR $T9[rsp+8]
	cmp	DWORD PTR [rax+8], ecx
	jne	SHORT $LN43@qt_static_
$LN42@qt_static_:
	mov	DWORD PTR tv212[rsp], 1
	jmp	SHORT $LN44@qt_static_
$LN43@qt_static_:
	mov	DWORD PTR tv212[rsp], 0
$LN44@qt_static_:
	cmp	DWORD PTR tv212[rsp], 0
	je	SHORT $LN24@qt_static_
; Line 163
	mov	rax, QWORD PTR result$2[rsp]
	mov	DWORD PTR [rax], 4
; Line 164
	jmp	$LN1@qt_static_
$LN24@qt_static_:
; Line 169
	lea	rax, OFFSET FLAT:?signal_detectStop@socketServer@@QEAAXXZ ; socketServer::signal_detectStop
	mov	QWORD PTR $T10[rsp], rax
	mov	DWORD PTR $T10[rsp+8], 0
	mov	eax, 8
	imul	rax, rax, 1
	mov	rcx, QWORD PTR _a$[rsp]
	mov	rax, QWORD PTR [rcx+rax]
	mov	rcx, QWORD PTR $T10[rsp]
	cmp	QWORD PTR [rax], rcx
	jne	SHORT $LN46@qt_static_
	mov	eax, 8
	imul	rax, rax, 1
	mov	rcx, QWORD PTR _a$[rsp]
	mov	rax, QWORD PTR [rcx+rax]
	cmp	QWORD PTR [rax], 0
	je	SHORT $LN45@qt_static_
	mov	eax, 8
	imul	rax, rax, 1
	mov	rcx, QWORD PTR _a$[rsp]
	mov	rax, QWORD PTR [rcx+rax]
	mov	ecx, DWORD PTR $T10[rsp+8]
	cmp	DWORD PTR [rax+8], ecx
	jne	SHORT $LN46@qt_static_
$LN45@qt_static_:
	mov	DWORD PTR tv258[rsp], 1
	jmp	SHORT $LN47@qt_static_
$LN46@qt_static_:
	mov	DWORD PTR tv258[rsp], 0
$LN47@qt_static_:
	cmp	DWORD PTR tv258[rsp], 0
	je	SHORT $LN25@qt_static_
; Line 170
	mov	rax, QWORD PTR result$2[rsp]
	mov	DWORD PTR [rax], 5
; Line 171
	jmp	$LN1@qt_static_
$LN25@qt_static_:
; Line 176
	lea	rax, OFFSET FLAT:?signal_caliStart@socketServer@@QEAAXXZ ; socketServer::signal_caliStart
	mov	QWORD PTR $T11[rsp], rax
	mov	DWORD PTR $T11[rsp+8], 0
	mov	eax, 8
	imul	rax, rax, 1
	mov	rcx, QWORD PTR _a$[rsp]
	mov	rax, QWORD PTR [rcx+rax]
	mov	rcx, QWORD PTR $T11[rsp]
	cmp	QWORD PTR [rax], rcx
	jne	SHORT $LN49@qt_static_
	mov	eax, 8
	imul	rax, rax, 1
	mov	rcx, QWORD PTR _a$[rsp]
	mov	rax, QWORD PTR [rcx+rax]
	cmp	QWORD PTR [rax], 0
	je	SHORT $LN48@qt_static_
	mov	eax, 8
	imul	rax, rax, 1
	mov	rcx, QWORD PTR _a$[rsp]
	mov	rax, QWORD PTR [rcx+rax]
	mov	ecx, DWORD PTR $T11[rsp+8]
	cmp	DWORD PTR [rax+8], ecx
	jne	SHORT $LN49@qt_static_
$LN48@qt_static_:
	mov	DWORD PTR tv272[rsp], 1
	jmp	SHORT $LN50@qt_static_
$LN49@qt_static_:
	mov	DWORD PTR tv272[rsp], 0
$LN50@qt_static_:
	cmp	DWORD PTR tv272[rsp], 0
	je	SHORT $LN26@qt_static_
; Line 177
	mov	rax, QWORD PTR result$2[rsp]
	mov	DWORD PTR [rax], 6
; Line 178
	jmp	$LN1@qt_static_
$LN26@qt_static_:
; Line 183
	lea	rax, OFFSET FLAT:?signal_caliStop@socketServer@@QEAAXXZ ; socketServer::signal_caliStop
	mov	QWORD PTR $T12[rsp], rax
	mov	DWORD PTR $T12[rsp+8], 0
	mov	eax, 8
	imul	rax, rax, 1
	mov	rcx, QWORD PTR _a$[rsp]
	mov	rax, QWORD PTR [rcx+rax]
	mov	rcx, QWORD PTR $T12[rsp]
	cmp	QWORD PTR [rax], rcx
	jne	SHORT $LN52@qt_static_
	mov	eax, 8
	imul	rax, rax, 1
	mov	rcx, QWORD PTR _a$[rsp]
	mov	rax, QWORD PTR [rcx+rax]
	cmp	QWORD PTR [rax], 0
	je	SHORT $LN51@qt_static_
	mov	eax, 8
	imul	rax, rax, 1
	mov	rcx, QWORD PTR _a$[rsp]
	mov	rax, QWORD PTR [rcx+rax]
	mov	ecx, DWORD PTR $T12[rsp+8]
	cmp	DWORD PTR [rax+8], ecx
	jne	SHORT $LN52@qt_static_
$LN51@qt_static_:
	mov	DWORD PTR tv286[rsp], 1
	jmp	SHORT $LN53@qt_static_
$LN52@qt_static_:
	mov	DWORD PTR tv286[rsp], 0
$LN53@qt_static_:
	cmp	DWORD PTR tv286[rsp], 0
	je	SHORT $LN27@qt_static_
; Line 184
	mov	rax, QWORD PTR result$2[rsp]
	mov	DWORD PTR [rax], 7
; Line 185
	jmp	$LN1@qt_static_
$LN27@qt_static_:
; Line 190
	lea	rax, OFFSET FLAT:?signal_dataIn@socketServer@@QEAAXVQString@@H@Z ; socketServer::signal_dataIn
	mov	QWORD PTR $T13[rsp], rax
	mov	DWORD PTR $T13[rsp+8], 0
	mov	eax, 8
	imul	rax, rax, 1
	mov	rcx, QWORD PTR _a$[rsp]
	mov	rax, QWORD PTR [rcx+rax]
	mov	rcx, QWORD PTR $T13[rsp]
	cmp	QWORD PTR [rax], rcx
	jne	SHORT $LN55@qt_static_
	mov	eax, 8
	imul	rax, rax, 1
	mov	rcx, QWORD PTR _a$[rsp]
	mov	rax, QWORD PTR [rcx+rax]
	cmp	QWORD PTR [rax], 0
	je	SHORT $LN54@qt_static_
	mov	eax, 8
	imul	rax, rax, 1
	mov	rcx, QWORD PTR _a$[rsp]
	mov	rax, QWORD PTR [rcx+rax]
	mov	ecx, DWORD PTR $T13[rsp+8]
	cmp	DWORD PTR [rax+8], ecx
	jne	SHORT $LN55@qt_static_
$LN54@qt_static_:
	mov	DWORD PTR tv300[rsp], 1
	jmp	SHORT $LN56@qt_static_
$LN55@qt_static_:
	mov	DWORD PTR tv300[rsp], 0
$LN56@qt_static_:
	cmp	DWORD PTR tv300[rsp], 0
	je	SHORT $LN1@qt_static_
; Line 191
	mov	rax, QWORD PTR result$2[rsp]
	mov	DWORD PTR [rax], 8
$LN1@qt_static_:
; Line 196
	add	rsp, 296				; 00000128H
	ret	0
	npad	2
$LN59@qt_static_:
	DD	$LN6@qt_static_
	DD	$LN7@qt_static_
	DD	$LN8@qt_static_
	DD	$LN9@qt_static_
	DD	$LN10@qt_static_
	DD	$LN11@qt_static_
	DD	$LN12@qt_static_
	DD	$LN13@qt_static_
	DD	$LN14@qt_static_
	DD	$LN15@qt_static_
	DD	$LN16@qt_static_
	DD	$LN17@qt_static_
?qt_static_metacall@socketServer@@CAXPEAVQObject@@W4Call@QMetaObject@@HPEAPEAX@Z ENDP ; socketServer::qt_static_metacall
_TEXT	ENDS
; Function compile flags: /Odtp
;	COMDAT ?trUtf8@socketServer@@SA?AVQString@@PEBD0H@Z
_TEXT	SEGMENT
$T1 = 48
__$ReturnUdt$ = 80
s$ = 88
c$ = 96
n$ = 104
?trUtf8@socketServer@@SA?AVQString@@PEBD0H@Z PROC	; socketServer::trUtf8, COMDAT
; File f:\code\sghang\socketserver\socketserver.h
; Line 13
$LN5:
	mov	DWORD PTR [rsp+32], r9d
	mov	QWORD PTR [rsp+24], r8
	mov	QWORD PTR [rsp+16], rdx
	mov	QWORD PTR [rsp+8], rcx
	sub	rsp, 72					; 00000048H
	mov	DWORD PTR $T1[rsp], 0
	mov	eax, DWORD PTR n$[rsp]
	mov	DWORD PTR [rsp+32], eax
	mov	r9, QWORD PTR c$[rsp]
	mov	r8, QWORD PTR s$[rsp]
	mov	rdx, QWORD PTR __$ReturnUdt$[rsp]
	lea	rcx, OFFSET FLAT:?staticMetaObject@socketServer@@2UQMetaObject@@B ; socketServer::staticMetaObject
	call	QWORD PTR __imp_?tr@QMetaObject@@QEBA?AVQString@@PEBD0H@Z
	mov	eax, DWORD PTR $T1[rsp]
	or	eax, 1
	mov	DWORD PTR $T1[rsp], eax
	mov	rax, QWORD PTR __$ReturnUdt$[rsp]
	add	rsp, 72					; 00000048H
	ret	0
?trUtf8@socketServer@@SA?AVQString@@PEBD0H@Z ENDP	; socketServer::trUtf8
_TEXT	ENDS
; Function compile flags: /Odtp
;	COMDAT ?tr@socketServer@@SA?AVQString@@PEBD0H@Z
_TEXT	SEGMENT
$T1 = 48
__$ReturnUdt$ = 80
s$ = 88
c$ = 96
n$ = 104
?tr@socketServer@@SA?AVQString@@PEBD0H@Z PROC		; socketServer::tr, COMDAT
; File f:\code\sghang\socketserver\socketserver.h
; Line 13
$LN5:
	mov	DWORD PTR [rsp+32], r9d
	mov	QWORD PTR [rsp+24], r8
	mov	QWORD PTR [rsp+16], rdx
	mov	QWORD PTR [rsp+8], rcx
	sub	rsp, 72					; 00000048H
	mov	DWORD PTR $T1[rsp], 0
	mov	eax, DWORD PTR n$[rsp]
	mov	DWORD PTR [rsp+32], eax
	mov	r9, QWORD PTR c$[rsp]
	mov	r8, QWORD PTR s$[rsp]
	mov	rdx, QWORD PTR __$ReturnUdt$[rsp]
	lea	rcx, OFFSET FLAT:?staticMetaObject@socketServer@@2UQMetaObject@@B ; socketServer::staticMetaObject
	call	QWORD PTR __imp_?tr@QMetaObject@@QEBA?AVQString@@PEBD0H@Z
	mov	eax, DWORD PTR $T1[rsp]
	or	eax, 1
	mov	DWORD PTR $T1[rsp], eax
	mov	rax, QWORD PTR __$ReturnUdt$[rsp]
	add	rsp, 72					; 00000048H
	ret	0
?tr@socketServer@@SA?AVQString@@PEBD0H@Z ENDP		; socketServer::tr
_TEXT	ENDS
; Function compile flags: /Odtp
_TEXT	SEGMENT
this$ = 48
_c$ = 56
_id$ = 64
_a$ = 72
?qt_metacall@socketServer@@UEAAHW4Call@QMetaObject@@HPEAPEAX@Z PROC ; socketServer::qt_metacall
; File f:\code\sghang\socketserver\generatedfiles\debug\moc_socketserver.cpp
; Line 220
$LN9:
	mov	QWORD PTR [rsp+32], r9
	mov	DWORD PTR [rsp+24], r8d
	mov	DWORD PTR [rsp+16], edx
	mov	QWORD PTR [rsp+8], rcx
	sub	rsp, 40					; 00000028H
; Line 221
	mov	r9, QWORD PTR _a$[rsp]
	mov	r8d, DWORD PTR _id$[rsp]
	mov	edx, DWORD PTR _c$[rsp]
	mov	rcx, QWORD PTR this$[rsp]
	call	QWORD PTR __imp_?qt_metacall@QObject@@UEAAHW4Call@QMetaObject@@HPEAPEAX@Z
	mov	DWORD PTR _id$[rsp], eax
; Line 222
	cmp	DWORD PTR _id$[rsp], 0
	jge	SHORT $LN2@qt_metacal
; Line 223
	mov	eax, DWORD PTR _id$[rsp]
	jmp	SHORT $LN1@qt_metacal
$LN2@qt_metacal:
; Line 224
	cmp	DWORD PTR _c$[rsp], 0
	jne	SHORT $LN3@qt_metacal
; Line 225
	cmp	DWORD PTR _id$[rsp], 12
	jge	SHORT $LN5@qt_metacal
; Line 226
	mov	r9, QWORD PTR _a$[rsp]
	mov	r8d, DWORD PTR _id$[rsp]
	mov	edx, DWORD PTR _c$[rsp]
	mov	rcx, QWORD PTR this$[rsp]
	call	?qt_static_metacall@socketServer@@CAXPEAVQObject@@W4Call@QMetaObject@@HPEAPEAX@Z ; socketServer::qt_static_metacall
$LN5@qt_metacal:
; Line 227
	mov	eax, DWORD PTR _id$[rsp]
	sub	eax, 12
	mov	DWORD PTR _id$[rsp], eax
	jmp	SHORT $LN4@qt_metacal
$LN3@qt_metacal:
; Line 228
	cmp	DWORD PTR _c$[rsp], 12
	jne	SHORT $LN6@qt_metacal
; Line 229
	cmp	DWORD PTR _id$[rsp], 12
	jge	SHORT $LN7@qt_metacal
; Line 230
	mov	eax, 8
	imul	rax, rax, 0
	mov	rcx, QWORD PTR _a$[rsp]
	mov	rax, QWORD PTR [rcx+rax]
	mov	DWORD PTR [rax], -1
$LN7@qt_metacal:
; Line 231
	mov	eax, DWORD PTR _id$[rsp]
	sub	eax, 12
	mov	DWORD PTR _id$[rsp], eax
$LN6@qt_metacal:
$LN4@qt_metacal:
; Line 233
	mov	eax, DWORD PTR _id$[rsp]
$LN1@qt_metacal:
; Line 234
	add	rsp, 40					; 00000028H
	ret	0
?qt_metacall@socketServer@@UEAAHW4Call@QMetaObject@@HPEAPEAX@Z ENDP ; socketServer::qt_metacall
_TEXT	ENDS
; Function compile flags: /Odtp
_TEXT	SEGMENT
tv77 = 32
this$ = 64
_clname$ = 72
?qt_metacast@socketServer@@UEAAPEAXPEBD@Z PROC		; socketServer::qt_metacast
; File f:\code\sghang\socketserver\generatedfiles\debug\moc_socketserver.cpp
; Line 210
$LN8:
	mov	QWORD PTR [rsp+16], rdx
	mov	QWORD PTR [rsp+8], rcx
	sub	rsp, 56					; 00000038H
; Line 211
	cmp	QWORD PTR _clname$[rsp], 0
	jne	SHORT $LN2@qt_metacas
	xor	eax, eax
	jmp	SHORT $LN1@qt_metacas
$LN2@qt_metacas:
; Line 212
	lea	rdx, OFFSET FLAT:?qt_meta_stringdata_socketServer@@3Uqt_meta_stringdata_socketServer_t@@B+384
	mov	rcx, QWORD PTR _clname$[rsp]
	call	strcmp
	test	eax, eax
	jne	SHORT $LN3@qt_metacas
; Line 213
	mov	rax, QWORD PTR this$[rsp]
	jmp	SHORT $LN1@qt_metacas
$LN3@qt_metacas:
; Line 214
	lea	rdx, OFFSET FLAT:$SG81128
	mov	rcx, QWORD PTR _clname$[rsp]
	call	strcmp
	test	eax, eax
	jne	SHORT $LN4@qt_metacas
; Line 215
	cmp	QWORD PTR this$[rsp], 0
	je	SHORT $LN6@qt_metacas
	mov	rax, QWORD PTR this$[rsp]
	add	rax, 16
	mov	QWORD PTR tv77[rsp], rax
	jmp	SHORT $LN7@qt_metacas
$LN6@qt_metacas:
	mov	QWORD PTR tv77[rsp], 0
$LN7@qt_metacas:
	mov	rax, QWORD PTR tv77[rsp]
	jmp	SHORT $LN1@qt_metacas
$LN4@qt_metacas:
; Line 216
	mov	rdx, QWORD PTR _clname$[rsp]
	mov	rcx, QWORD PTR this$[rsp]
	call	QWORD PTR __imp_?qt_metacast@QObject@@UEAAPEAXPEBD@Z
$LN1@qt_metacas:
; Line 217
	add	rsp, 56					; 00000038H
	ret	0
?qt_metacast@socketServer@@UEAAPEAXPEBD@Z ENDP		; socketServer::qt_metacast
_TEXT	ENDS
; Function compile flags: /Odtp
_TEXT	SEGMENT
tv82 = 32
this$ = 64
?metaObject@socketServer@@UEBAPEBUQMetaObject@@XZ PROC	; socketServer::metaObject
; File f:\code\sghang\socketserver\generatedfiles\debug\moc_socketserver.cpp
; Line 205
$LN5:
	mov	QWORD PTR [rsp+8], rcx
	sub	rsp, 56					; 00000038H
; Line 206
	mov	rax, QWORD PTR this$[rsp]
	add	rax, 8
	mov	rcx, rax
	call	??C?$QScopedPointer@VQObjectData@@U?$QScopedPointerDeleter@VQObjectData@@@@@@QEBAPEAVQObjectData@@XZ ; QScopedPointer<QObjectData,QScopedPointerDeleter<QObjectData> >::operator->
	cmp	QWORD PTR [rax+40], 0
	je	SHORT $LN3@metaObject
	mov	rax, QWORD PTR this$[rsp]
	add	rax, 8
	mov	rcx, rax
	call	??C?$QScopedPointer@VQObjectData@@U?$QScopedPointerDeleter@VQObjectData@@@@@@QEBAPEAVQObjectData@@XZ ; QScopedPointer<QObjectData,QScopedPointerDeleter<QObjectData> >::operator->
	mov	rcx, rax
	call	QWORD PTR __imp_?dynamicMetaObject@QObjectData@@QEBAPEAUQMetaObject@@XZ
	mov	QWORD PTR tv82[rsp], rax
	jmp	SHORT $LN4@metaObject
$LN3@metaObject:
	lea	rax, OFFSET FLAT:?staticMetaObject@socketServer@@2UQMetaObject@@B ; socketServer::staticMetaObject
	mov	QWORD PTR tv82[rsp], rax
$LN4@metaObject:
	mov	rax, QWORD PTR tv82[rsp]
; Line 207
	add	rsp, 56					; 00000038H
	ret	0
?metaObject@socketServer@@UEBAPEBUQMetaObject@@XZ ENDP	; socketServer::metaObject
_TEXT	ENDS
; Function compile flags: /Odtp
;	COMDAT ??C?$QScopedPointer@VQObjectData@@U?$QScopedPointerDeleter@VQObjectData@@@@@@QEBAPEAVQObjectData@@XZ
_TEXT	SEGMENT
this$ = 8
??C?$QScopedPointer@VQObjectData@@U?$QScopedPointerDeleter@VQObjectData@@@@@@QEBAPEAVQObjectData@@XZ PROC ; QScopedPointer<QObjectData,QScopedPointerDeleter<QObjectData> >::operator->, COMDAT
; File c:\qt\qt5.9.8\5.9.8\msvc2015_64\include\qtcore\qscopedpointer.h
; Line 117
	mov	QWORD PTR [rsp+8], rcx
; Line 118
	mov	rax, QWORD PTR this$[rsp]
	mov	rax, QWORD PTR [rax]
; Line 119
	ret	0
??C?$QScopedPointer@VQObjectData@@U?$QScopedPointerDeleter@VQObjectData@@@@@@QEBAPEAVQObjectData@@XZ ENDP ; QScopedPointer<QObjectData,QScopedPointerDeleter<QObjectData> >::operator->
_TEXT	ENDS
; Function compile flags: /Odtp
;	COMDAT ?__empty_global_delete@@YAXPEAX_K@Z
_TEXT	SEGMENT
__formal$ = 8
__formal$ = 16
?__empty_global_delete@@YAXPEAX_K@Z PROC		; __empty_global_delete, COMDAT
; File f:\code\sghang\socketserver\generatedfiles\debug\moc_socketserver.cpp
; Line 293
	mov	QWORD PTR [rsp+16], rdx
	mov	QWORD PTR [rsp+8], rcx
	ret	0
?__empty_global_delete@@YAXPEAX_K@Z ENDP		; __empty_global_delete
_TEXT	ENDS
; Function compile flags: /Odtp
;	COMDAT ?__empty_global_delete@@YAXPEAX@Z
_TEXT	SEGMENT
__formal$ = 8
?__empty_global_delete@@YAXPEAX@Z PROC			; __empty_global_delete, COMDAT
; File f:\code\sghang\socketserver\generatedfiles\debug\moc_socketserver.cpp
; Line 293
	mov	QWORD PTR [rsp+8], rcx
	ret	0
?__empty_global_delete@@YAXPEAX@Z ENDP			; __empty_global_delete
_TEXT	ENDS
END
