; Listing generated by Microsoft (R) Optimizing Compiler Version 19.00.24215.1 

include listing.inc

INCLUDELIB MSVCRT
INCLUDELIB OLDNAMES

EXTRN	__imp_?staticMetaObject@QObject@@2UQMetaObject@@B:BYTE
CONST	SEGMENT
?qt_meta_stringdata_socketServer@@3Uqt_meta_stringdata_socketServer_t@@B DD 0ffffffffH ; qt_meta_stringdata_socketServer
	DD	0cH
	DD	00H
	ORG $+4
	DQ	0000000000000180H
	DD	0ffffffffH
	DD	011H
	DD	00H
	ORG $+4
	DQ	0000000000000175H
	DD	0ffffffffH
	DD	00H
	DD	00H
	ORG $+4
	DQ	000000000000016fH
	DD	0ffffffffH
	DD	011H
	DD	00H
	ORG $+4
	DQ	0000000000000158H
	DD	0ffffffffH
	DD	015H
	DD	00H
	ORG $+4
	DQ	0000000000000152H
	DD	0ffffffffH
	DD	0bH
	DD	00H
	ORG $+4
	DQ	0000000000000150H
	DD	0ffffffffH
	DD	012H
	DD	00H
	ORG $+4
	DQ	0000000000000144H
	DD	0ffffffffH
	DD	011H
	DD	00H
	ORG $+4
	DQ	000000000000013fH
	DD	0ffffffffH
	DD	010H
	DD	00H
	ORG $+4
	DQ	0000000000000139H
	DD	0ffffffffH
	DD	0fH
	DD	00H
	ORG $+4
	DQ	0000000000000132H
	DD	0ffffffffH
	DD	0dH
	DD	00H
	ORG $+4
	DQ	000000000000012aH
	DD	0ffffffffH
	DD	03H
	DD	00H
	ORG $+4
	DQ	0000000000000120H
	DD	0ffffffffH
	DD	04H
	DD	00H
	ORG $+4
	DQ	000000000000010cH
	DD	0ffffffffH
	DD	0eH
	DD	00H
	ORG $+4
	DQ	00000000000000f9H
	DD	0ffffffffH
	DD	010H
	DD	00H
	ORG $+4
	DQ	00000000000000f0H
	DD	0ffffffffH
	DD	011H
	DD	00H
	ORG $+4
	DQ	00000000000000e9H
	DB	'socketServer', 00H, 'signal_newConnect', 00H, 00H, 'sign'
	DB	'al_disconnect', 00H, 'signal_receiveDataAll', 00H, 'signal_be'
	DB	'at', 00H, 'signal_detectStart', 00H, 'signal_detectStop', 00H
	DB	'signal_caliStart', 00H, 'signal_caliStop', 00H, 'signal_dataI'
	DB	'n', 00H, 'str', 00H, 'type', 00H, 'slot_newClient', 00H, 'slo'
	DB	't_receiveData', 00H, 'slot_disconnected', 00H
	ORG $+5
	ORG $+8
?qt_meta_data_socketServer@@3QBIB DD 07H		; qt_meta_data_socketServer
	DD	00H
	DD	00H
	DD	00H
	DD	0cH
	DD	0eH
	DD	00H
	DD	00H
	DD	00H
	DD	00H
	DD	00H
	DD	00H
	DD	00H
	DD	09H
	DD	01H
	DD	00H
	DD	04aH
	DD	02H
	DD	06H
	DD	03H
	DD	00H
	DD	04bH
	DD	02H
	DD	06H
	DD	04H
	DD	01H
	DD	04cH
	DD	02H
	DD	06H
	DD	05H
	DD	00H
	DD	04fH
	DD	02H
	DD	06H
	DD	06H
	DD	00H
	DD	050H
	DD	02H
	DD	06H
	DD	07H
	DD	00H
	DD	051H
	DD	02H
	DD	06H
	DD	08H
	DD	00H
	DD	052H
	DD	02H
	DD	06H
	DD	09H
	DD	00H
	DD	053H
	DD	02H
	DD	06H
	DD	0aH
	DD	02H
	DD	054H
	DD	02H
	DD	06H
	DD	0dH
	DD	00H
	DD	059H
	DD	02H
	DD	08H
	DD	0eH
	DD	00H
	DD	05aH
	DD	02H
	DD	08H
	DD	0fH
	DD	00H
	DD	05bH
	DD	02H
	DD	08H
	DD	02bH
	DD	02bH
	DD	02bH
	DD	0cH
	DD	02H
	DD	02bH
	DD	02bH
	DD	02bH
	DD	02bH
	DD	02bH
	DD	02bH
	DD	0aH
	DD	02H
	DD	0bH
	DD	0cH
	DD	02bH
	DD	02bH
	DD	02bH
	DD	00H
CONST	ENDS
PUBLIC	?metaObject@socketServer@@UEBAPEBUQMetaObject@@XZ ; socketServer::metaObject
PUBLIC	?qt_metacast@socketServer@@UEAAPEAXPEBD@Z	; socketServer::qt_metacast
PUBLIC	?qt_metacall@socketServer@@UEAAHW4Call@QMetaObject@@HPEAPEAX@Z ; socketServer::qt_metacall
PUBLIC	?tr@socketServer@@SA?AVQString@@PEBD0H@Z	; socketServer::tr
PUBLIC	?trUtf8@socketServer@@SA?AVQString@@PEBD0H@Z	; socketServer::trUtf8
PUBLIC	?qt_static_metacall@socketServer@@CAXPEAVQObject@@W4Call@QMetaObject@@HPEAPEAX@Z ; socketServer::qt_static_metacall
PUBLIC	?signal_newConnect@socketServer@@QEAAXXZ	; socketServer::signal_newConnect
PUBLIC	?signal_disconnect@socketServer@@QEAAXXZ	; socketServer::signal_disconnect
PUBLIC	?signal_receiveDataAll@socketServer@@QEAAXVQByteArray@@@Z ; socketServer::signal_receiveDataAll
PUBLIC	?signal_beat@socketServer@@QEAAXXZ		; socketServer::signal_beat
PUBLIC	?signal_detectStart@socketServer@@QEAAXXZ	; socketServer::signal_detectStart
PUBLIC	?signal_detectStop@socketServer@@QEAAXXZ	; socketServer::signal_detectStop
PUBLIC	?signal_caliStart@socketServer@@QEAAXXZ		; socketServer::signal_caliStart
PUBLIC	?signal_caliStop@socketServer@@QEAAXXZ		; socketServer::signal_caliStop
PUBLIC	?signal_dataIn@socketServer@@QEAAXVQString@@H@Z	; socketServer::signal_dataIn
PUBLIC	?staticMetaObject@socketServer@@2UQMetaObject@@B ; socketServer::staticMetaObject
PUBLIC	??_C@_0L@LHMMGAIG@ModuleBase?$AA@		; `string'
EXTRN	__imp_?tr@QMetaObject@@QEBA?AVQString@@PEBD0H@Z:PROC
EXTRN	__imp_?activate@QMetaObject@@SAXPEAVQObject@@PEBU1@HPEAPEAX@Z:PROC
EXTRN	__imp_??0QByteArray@@QEAA@AEBV0@@Z:PROC
EXTRN	__imp_??1QByteArray@@QEAA@XZ:PROC
EXTRN	__imp_??0QString@@QEAA@AEBV0@@Z:PROC
EXTRN	__imp_??1QString@@QEAA@XZ:PROC
EXTRN	__imp_?dynamicMetaObject@QObjectData@@QEBAPEAUQMetaObject@@XZ:PROC
EXTRN	__imp_?qt_metacast@QObject@@UEAAPEAXPEBD@Z:PROC
EXTRN	__imp_?qt_metacall@QObject@@UEAAHW4Call@QMetaObject@@HPEAPEAX@Z:PROC
EXTRN	?slot_newClient@socketServer@@AEAAXXZ:PROC	; socketServer::slot_newClient
EXTRN	?slot_receiveData@socketServer@@AEAAXXZ:PROC	; socketServer::slot_receiveData
EXTRN	?slot_disconnected@socketServer@@AEAAXXZ:PROC	; socketServer::slot_disconnected
EXTRN	__CxxFrameHandler3:PROC
EXTRN	__GSHandlerCheck_EH:PROC
EXTRN	__security_check_cookie:PROC
EXTRN	strcmp:PROC
EXTRN	__ImageBase:BYTE
EXTRN	__security_cookie:QWORD
;	COMDAT pdata
pdata	SEGMENT
$pdata$?qt_metacast@socketServer@@UEAAPEAXPEBD@Z DD imagerel $LN11
	DD	imagerel $LN11+151
	DD	imagerel $unwind$?qt_metacast@socketServer@@UEAAPEAXPEBD@Z
pdata	ENDS
;	COMDAT pdata
pdata	SEGMENT
$pdata$?qt_metacall@socketServer@@UEAAHW4Call@QMetaObject@@HPEAPEAX@Z DD imagerel $LN10
	DD	imagerel $LN10+111
	DD	imagerel $unwind$?qt_metacall@socketServer@@UEAAHW4Call@QMetaObject@@HPEAPEAX@Z
pdata	ENDS
;	COMDAT pdata
pdata	SEGMENT
$pdata$?tr@socketServer@@SA?AVQString@@PEBD0H@Z DD imagerel $LN6
	DD	imagerel $LN6+53
	DD	imagerel $unwind$?tr@socketServer@@SA?AVQString@@PEBD0H@Z
pdata	ENDS
;	COMDAT pdata
pdata	SEGMENT
$pdata$?trUtf8@socketServer@@SA?AVQString@@PEBD0H@Z DD imagerel $LN6
	DD	imagerel $LN6+53
	DD	imagerel $unwind$?trUtf8@socketServer@@SA?AVQString@@PEBD0H@Z
pdata	ENDS
;	COMDAT pdata
pdata	SEGMENT
$pdata$?qt_static_metacall@socketServer@@CAXPEAVQObject@@W4Call@QMetaObject@@HPEAPEAX@Z DD imagerel $LN85
	DD	imagerel $LN85+708
	DD	imagerel $unwind$?qt_static_metacall@socketServer@@CAXPEAVQObject@@W4Call@QMetaObject@@HPEAPEAX@Z
pdata	ENDS
;	COMDAT pdata
pdata	SEGMENT
$pdata$?signal_receiveDataAll@socketServer@@QEAAXVQByteArray@@@Z DD imagerel $LN4
	DD	imagerel $LN4+76
	DD	imagerel $unwind$?signal_receiveDataAll@socketServer@@QEAAXVQByteArray@@@Z
pdata	ENDS
;	COMDAT pdata
pdata	SEGMENT
$pdata$?signal_dataIn@socketServer@@QEAAXVQString@@H@Z DD imagerel $LN4
	DD	imagerel $LN4+114
	DD	imagerel $unwind$?signal_dataIn@socketServer@@QEAAXVQString@@H@Z
pdata	ENDS
CRT$XCU	SEGMENT
??staticMetaObject$initializer$@socketServer@@2P6AXXZEA@@3P6AXXZEA DQ FLAT:??__E?staticMetaObject@socketServer@@2UQMetaObject@@B@@YAXXZ ; ??staticMetaObject$initializer$@socketServer@@2P6AXXZEA@@3P6AXXZEA
CRT$XCU	ENDS
;	COMDAT ??_C@_0L@LHMMGAIG@ModuleBase?$AA@
CONST	SEGMENT
??_C@_0L@LHMMGAIG@ModuleBase?$AA@ DB 'ModuleBase', 00H	; `string'
CONST	ENDS
_DATA	SEGMENT
?staticMetaObject@socketServer@@2UQMetaObject@@B DB 8 DUP(00H) ; socketServer::staticMetaObject
	DQ	FLAT:?qt_meta_stringdata_socketServer@@3Uqt_meta_stringdata_socketServer_t@@B
	DQ	FLAT:?qt_meta_data_socketServer@@3QBIB
	DQ	FLAT:?qt_static_metacall@socketServer@@CAXPEAVQObject@@W4Call@QMetaObject@@HPEAPEAX@Z
	DQ	0000000000000000H
	DQ	0000000000000000H
_DATA	ENDS
;	COMDAT xdata
xdata	SEGMENT
$ip2state$?signal_dataIn@socketServer@@QEAAXVQString@@H@Z DD imagerel ?signal_dataIn@socketServer@@QEAAXVQString@@H@Z
	DD	0ffffffffH
	DD	imagerel ?signal_dataIn@socketServer@@QEAAXVQString@@H@Z+42
	DD	00H
	DD	imagerel ?signal_dataIn@socketServer@@QEAAXVQString@@H@Z+86
	DD	0ffffffffH
xdata	ENDS
;	COMDAT xdata
xdata	SEGMENT
$stateUnwindMap$?signal_dataIn@socketServer@@QEAAXVQString@@H@Z DD 0ffffffffH
	DD	imagerel ?dtor$0@?0??signal_dataIn@socketServer@@QEAAXVQString@@H@Z@4HA
xdata	ENDS
;	COMDAT CONST
CONST	SEGMENT
$cppxdata$?signal_dataIn@socketServer@@QEAAXVQString@@H@Z DD 019930522H
	DD	01H
	DD	imagerel $stateUnwindMap$?signal_dataIn@socketServer@@QEAAXVQString@@H@Z
	DD	00H
	DD	00H
	DD	03H
	DD	imagerel $ip2state$?signal_dataIn@socketServer@@QEAAXVQString@@H@Z
	DD	028H
	DD	00H
	DD	01H
CONST	ENDS
;	COMDAT xdata
xdata	SEGMENT
$unwind$?signal_dataIn@socketServer@@QEAAXVQString@@H@Z DD 021f19H
	DD	03004b208H
	DD	imagerel __GSHandlerCheck_EH
	DD	imagerel $cppxdata$?signal_dataIn@socketServer@@QEAAXVQString@@H@Z
	DD	052H
xdata	ENDS
;	COMDAT xdata
xdata	SEGMENT
$ip2state$?signal_receiveDataAll@socketServer@@QEAAXVQByteArray@@@Z DD imagerel ?signal_receiveDataAll@socketServer@@QEAAXVQByteArray@@@Z
	DD	0ffffffffH
	DD	imagerel ?signal_receiveDataAll@socketServer@@QEAAXVQByteArray@@@Z+22
	DD	00H
	DD	imagerel ?signal_receiveDataAll@socketServer@@QEAAXVQByteArray@@@Z+61
	DD	0ffffffffH
xdata	ENDS
;	COMDAT xdata
xdata	SEGMENT
$stateUnwindMap$?signal_receiveDataAll@socketServer@@QEAAXVQByteArray@@@Z DD 0ffffffffH
	DD	imagerel ?dtor$0@?0??signal_receiveDataAll@socketServer@@QEAAXVQByteArray@@@Z@4HA
xdata	ENDS
;	COMDAT CONST
CONST	SEGMENT
$cppxdata$?signal_receiveDataAll@socketServer@@QEAAXVQByteArray@@@Z DD 019930522H
	DD	01H
	DD	imagerel $stateUnwindMap$?signal_receiveDataAll@socketServer@@QEAAXVQByteArray@@@Z
	DD	00H
	DD	00H
	DD	03H
	DD	imagerel $ip2state$?signal_receiveDataAll@socketServer@@QEAAXVQByteArray@@@Z
	DD	020H
	DD	00H
	DD	01H
CONST	ENDS
;	COMDAT xdata
xdata	SEGMENT
$unwind$?signal_receiveDataAll@socketServer@@QEAAXVQByteArray@@@Z DD 021311H
	DD	03006720aH
	DD	imagerel __CxxFrameHandler3
	DD	imagerel $cppxdata$?signal_receiveDataAll@socketServer@@QEAAXVQByteArray@@@Z
xdata	ENDS
;	COMDAT xdata
xdata	SEGMENT
$unwind$?qt_static_metacall@socketServer@@CAXPEAVQObject@@W4Call@QMetaObject@@HPEAPEAX@Z DD 040a01H
	DD	08340aH
	DD	07006520aH
xdata	ENDS
;	COMDAT xdata
xdata	SEGMENT
$unwind$?trUtf8@socketServer@@SA?AVQString@@PEBD0H@Z DD 020601H
	DD	030027206H
xdata	ENDS
;	COMDAT xdata
xdata	SEGMENT
$unwind$?tr@socketServer@@SA?AVQString@@PEBD0H@Z DD 020601H
	DD	030027206H
xdata	ENDS
;	COMDAT xdata
xdata	SEGMENT
$unwind$?qt_metacall@socketServer@@UEAAHW4Call@QMetaObject@@HPEAPEAX@Z DD 081401H
	DD	086414H
	DD	075414H
	DD	063414H
	DD	070103214H
xdata	ENDS
;	COMDAT xdata
xdata	SEGMENT
$unwind$?qt_metacast@socketServer@@UEAAPEAXPEBD@Z DD 040a01H
	DD	06340aH
	DD	07006320aH
xdata	ENDS
; Function compile flags: /Ogtpy
;	COMDAT ??__E?staticMetaObject@socketServer@@2UQMetaObject@@B@@YAXXZ
text$di	SEGMENT
??__E?staticMetaObject@socketServer@@2UQMetaObject@@B@@YAXXZ PROC ; `dynamic initializer for 'socketServer::staticMetaObject'', COMDAT
; File f:\code\sghang\socketserver\generatedfiles\release\moc_socketserver.cpp
; Line 199
	mov	rax, QWORD PTR __imp_?staticMetaObject@QObject@@2UQMetaObject@@B
	mov	QWORD PTR ?staticMetaObject@socketServer@@2UQMetaObject@@B, rax
; Line 200
	ret	0
??__E?staticMetaObject@socketServer@@2UQMetaObject@@B@@YAXXZ ENDP ; `dynamic initializer for 'socketServer::staticMetaObject''
text$di	ENDS
; Function compile flags: /Ogtpy
;	COMDAT ?signal_dataIn@socketServer@@QEAAXVQString@@H@Z
_TEXT	SEGMENT
_t1$GSCopy$ = 48
__$ArrayPad$ = 80
this$ = 112
_t1$ = 120
_t2$ = 128
?signal_dataIn@socketServer@@QEAAXVQString@@H@Z PROC	; socketServer::signal_dataIn, COMDAT
; File f:\code\sghang\socketserver\generatedfiles\release\moc_socketserver.cpp
; Line 287
$LN4:
	mov	r11, rsp
	push	rbx
	sub	rsp, 96					; 00000060H
	mov	QWORD PTR [r11-64], -2
	mov	rax, QWORD PTR __security_cookie
	xor	rax, rsp
	mov	QWORD PTR __$ArrayPad$[rsp], rax
	mov	rbx, rdx
	mov	QWORD PTR [r11-56], rdx
	mov	DWORD PTR [r11-72], r8d
; Line 288
	mov	QWORD PTR [r11-48], 0
	mov	QWORD PTR [r11-40], rdx
	lea	rax, QWORD PTR [r11-72]
	mov	QWORD PTR [r11-32], rax
; Line 289
	lea	r9, QWORD PTR [r11-48]
	mov	r8d, 8
	lea	rdx, OFFSET FLAT:?staticMetaObject@socketServer@@2UQMetaObject@@B ; socketServer::staticMetaObject
	call	QWORD PTR __imp_?activate@QMetaObject@@SAXPEAVQObject@@PEBU1@HPEAPEAX@Z
	npad	1
; Line 290
	mov	rcx, rbx
	call	QWORD PTR __imp_??1QString@@QEAA@XZ
	mov	rcx, QWORD PTR __$ArrayPad$[rsp]
	xor	rcx, rsp
	call	__security_check_cookie
	add	rsp, 96					; 00000060H
	pop	rbx
	ret	0
?signal_dataIn@socketServer@@QEAAXVQString@@H@Z ENDP	; socketServer::signal_dataIn
_TEXT	ENDS
;	COMDAT text$x
text$x	SEGMENT
_t1$GSCopy$ = 48
__$ArrayPad$ = 80
this$ = 112
_t1$ = 120
_t2$ = 128
?dtor$0@?0??signal_dataIn@socketServer@@QEAAXVQString@@H@Z@4HA PROC ; `socketServer::signal_dataIn'::`1'::dtor$0
	mov	rcx, QWORD PTR _t1$GSCopy$[rdx]
	rex_jmp	QWORD PTR __imp_??1QString@@QEAA@XZ
?dtor$0@?0??signal_dataIn@socketServer@@QEAAXVQString@@H@Z@4HA ENDP ; `socketServer::signal_dataIn'::`1'::dtor$0
text$x	ENDS
; Function compile flags: /Ogtpy
;	COMDAT text$x
text$x	SEGMENT
_t1$GSCopy$ = 48
__$ArrayPad$ = 80
this$ = 112
_t1$ = 120
_t2$ = 128
?dtor$0@?0??signal_dataIn@socketServer@@QEAAXVQString@@H@Z@4HA PROC ; `socketServer::signal_dataIn'::`1'::dtor$0
	mov	rcx, QWORD PTR _t1$GSCopy$[rdx]
	rex_jmp	QWORD PTR __imp_??1QString@@QEAA@XZ
?dtor$0@?0??signal_dataIn@socketServer@@QEAAXVQString@@H@Z@4HA ENDP ; `socketServer::signal_dataIn'::`1'::dtor$0
text$x	ENDS
; Function compile flags: /Ogtpy
;	COMDAT ?signal_caliStop@socketServer@@QEAAXXZ
_TEXT	SEGMENT
this$ = 8
?signal_caliStop@socketServer@@QEAAXXZ PROC		; socketServer::signal_caliStop, COMDAT
; File f:\code\sghang\socketserver\generatedfiles\release\moc_socketserver.cpp
; Line 282
	xor	r9d, r9d
	lea	rdx, OFFSET FLAT:?staticMetaObject@socketServer@@2UQMetaObject@@B ; socketServer::staticMetaObject
	lea	r8d, QWORD PTR [r9+7]
	rex_jmp	QWORD PTR __imp_?activate@QMetaObject@@SAXPEAVQObject@@PEBU1@HPEAPEAX@Z
?signal_caliStop@socketServer@@QEAAXXZ ENDP		; socketServer::signal_caliStop
_TEXT	ENDS
; Function compile flags: /Ogtpy
;	COMDAT ?signal_caliStart@socketServer@@QEAAXXZ
_TEXT	SEGMENT
this$ = 8
?signal_caliStart@socketServer@@QEAAXXZ PROC		; socketServer::signal_caliStart, COMDAT
; File f:\code\sghang\socketserver\generatedfiles\release\moc_socketserver.cpp
; Line 276
	xor	r9d, r9d
	lea	rdx, OFFSET FLAT:?staticMetaObject@socketServer@@2UQMetaObject@@B ; socketServer::staticMetaObject
	lea	r8d, QWORD PTR [r9+6]
	rex_jmp	QWORD PTR __imp_?activate@QMetaObject@@SAXPEAVQObject@@PEBU1@HPEAPEAX@Z
?signal_caliStart@socketServer@@QEAAXXZ ENDP		; socketServer::signal_caliStart
_TEXT	ENDS
; Function compile flags: /Ogtpy
;	COMDAT ?signal_detectStop@socketServer@@QEAAXXZ
_TEXT	SEGMENT
this$ = 8
?signal_detectStop@socketServer@@QEAAXXZ PROC		; socketServer::signal_detectStop, COMDAT
; File f:\code\sghang\socketserver\generatedfiles\release\moc_socketserver.cpp
; Line 270
	xor	r9d, r9d
	lea	rdx, OFFSET FLAT:?staticMetaObject@socketServer@@2UQMetaObject@@B ; socketServer::staticMetaObject
	lea	r8d, QWORD PTR [r9+5]
	rex_jmp	QWORD PTR __imp_?activate@QMetaObject@@SAXPEAVQObject@@PEBU1@HPEAPEAX@Z
?signal_detectStop@socketServer@@QEAAXXZ ENDP		; socketServer::signal_detectStop
_TEXT	ENDS
; Function compile flags: /Ogtpy
;	COMDAT ?signal_detectStart@socketServer@@QEAAXXZ
_TEXT	SEGMENT
this$ = 8
?signal_detectStart@socketServer@@QEAAXXZ PROC		; socketServer::signal_detectStart, COMDAT
; File f:\code\sghang\socketserver\generatedfiles\release\moc_socketserver.cpp
; Line 264
	xor	r9d, r9d
	lea	rdx, OFFSET FLAT:?staticMetaObject@socketServer@@2UQMetaObject@@B ; socketServer::staticMetaObject
	lea	r8d, QWORD PTR [r9+4]
	rex_jmp	QWORD PTR __imp_?activate@QMetaObject@@SAXPEAVQObject@@PEBU1@HPEAPEAX@Z
?signal_detectStart@socketServer@@QEAAXXZ ENDP		; socketServer::signal_detectStart
_TEXT	ENDS
; Function compile flags: /Ogtpy
;	COMDAT ?signal_beat@socketServer@@QEAAXXZ
_TEXT	SEGMENT
this$ = 8
?signal_beat@socketServer@@QEAAXXZ PROC			; socketServer::signal_beat, COMDAT
; File f:\code\sghang\socketserver\generatedfiles\release\moc_socketserver.cpp
; Line 258
	xor	r9d, r9d
	lea	rdx, OFFSET FLAT:?staticMetaObject@socketServer@@2UQMetaObject@@B ; socketServer::staticMetaObject
	lea	r8d, QWORD PTR [r9+3]
	rex_jmp	QWORD PTR __imp_?activate@QMetaObject@@SAXPEAVQObject@@PEBU1@HPEAPEAX@Z
?signal_beat@socketServer@@QEAAXXZ ENDP			; socketServer::signal_beat
_TEXT	ENDS
; Function compile flags: /Ogtpy
;	COMDAT ?signal_receiveDataAll@socketServer@@QEAAXVQByteArray@@@Z
_TEXT	SEGMENT
$T1 = 32
_a$ = 40
this$ = 80
_t1$ = 88
?signal_receiveDataAll@socketServer@@QEAAXVQByteArray@@@Z PROC ; socketServer::signal_receiveDataAll, COMDAT
; File f:\code\sghang\socketserver\generatedfiles\release\moc_socketserver.cpp
; Line 250
$LN4:
	mov	QWORD PTR [rsp+16], rdx
	push	rbx
	sub	rsp, 64					; 00000040H
	mov	QWORD PTR $T1[rsp], -2
	mov	rbx, rdx
; Line 251
	mov	QWORD PTR _a$[rsp], 0
	mov	QWORD PTR _a$[rsp+8], rdx
; Line 252
	lea	r9, QWORD PTR _a$[rsp]
	mov	r8d, 2
	lea	rdx, OFFSET FLAT:?staticMetaObject@socketServer@@2UQMetaObject@@B ; socketServer::staticMetaObject
	call	QWORD PTR __imp_?activate@QMetaObject@@SAXPEAVQObject@@PEBU1@HPEAPEAX@Z
	npad	1
; Line 253
	mov	rcx, rbx
	call	QWORD PTR __imp_??1QByteArray@@QEAA@XZ
	add	rsp, 64					; 00000040H
	pop	rbx
	ret	0
?signal_receiveDataAll@socketServer@@QEAAXVQByteArray@@@Z ENDP ; socketServer::signal_receiveDataAll
_TEXT	ENDS
;	COMDAT text$x
text$x	SEGMENT
$T1 = 32
_a$ = 40
this$ = 80
_t1$ = 88
?dtor$0@?0??signal_receiveDataAll@socketServer@@QEAAXVQByteArray@@@Z@4HA PROC ; `socketServer::signal_receiveDataAll'::`1'::dtor$0
	mov	rcx, QWORD PTR _t1$[rdx]
	rex_jmp	QWORD PTR __imp_??1QByteArray@@QEAA@XZ
?dtor$0@?0??signal_receiveDataAll@socketServer@@QEAAXVQByteArray@@@Z@4HA ENDP ; `socketServer::signal_receiveDataAll'::`1'::dtor$0
text$x	ENDS
; Function compile flags: /Ogtpy
;	COMDAT text$x
text$x	SEGMENT
$T1 = 32
_a$ = 40
this$ = 80
_t1$ = 88
?dtor$0@?0??signal_receiveDataAll@socketServer@@QEAAXVQByteArray@@@Z@4HA PROC ; `socketServer::signal_receiveDataAll'::`1'::dtor$0
	mov	rcx, QWORD PTR _t1$[rdx]
	rex_jmp	QWORD PTR __imp_??1QByteArray@@QEAA@XZ
?dtor$0@?0??signal_receiveDataAll@socketServer@@QEAAXVQByteArray@@@Z@4HA ENDP ; `socketServer::signal_receiveDataAll'::`1'::dtor$0
text$x	ENDS
; Function compile flags: /Ogtpy
;	COMDAT ?signal_disconnect@socketServer@@QEAAXXZ
_TEXT	SEGMENT
this$ = 8
?signal_disconnect@socketServer@@QEAAXXZ PROC		; socketServer::signal_disconnect, COMDAT
; File f:\code\sghang\socketserver\generatedfiles\release\moc_socketserver.cpp
; Line 245
	xor	r9d, r9d
	lea	rdx, OFFSET FLAT:?staticMetaObject@socketServer@@2UQMetaObject@@B ; socketServer::staticMetaObject
	lea	r8d, QWORD PTR [r9+1]
	rex_jmp	QWORD PTR __imp_?activate@QMetaObject@@SAXPEAVQObject@@PEBU1@HPEAPEAX@Z
?signal_disconnect@socketServer@@QEAAXXZ ENDP		; socketServer::signal_disconnect
_TEXT	ENDS
; Function compile flags: /Ogtpy
;	COMDAT ?signal_newConnect@socketServer@@QEAAXXZ
_TEXT	SEGMENT
this$ = 8
?signal_newConnect@socketServer@@QEAAXXZ PROC		; socketServer::signal_newConnect, COMDAT
; File f:\code\sghang\socketserver\generatedfiles\release\moc_socketserver.cpp
; Line 239
	xor	r9d, r9d
	lea	rdx, OFFSET FLAT:?staticMetaObject@socketServer@@2UQMetaObject@@B ; socketServer::staticMetaObject
	xor	r8d, r8d
	rex_jmp	QWORD PTR __imp_?activate@QMetaObject@@SAXPEAVQObject@@PEBU1@HPEAPEAX@Z
?signal_newConnect@socketServer@@QEAAXXZ ENDP		; socketServer::signal_newConnect
_TEXT	ENDS
; Function compile flags: /Ogtpy
;	COMDAT ?qt_static_metacall@socketServer@@CAXPEAVQObject@@W4Call@QMetaObject@@HPEAPEAX@Z
_TEXT	SEGMENT
$T1 = 32
$T2 = 32
_o$ = 64
_c$ = 72
_id$ = 80
_a$ = 88
?qt_static_metacall@socketServer@@CAXPEAVQObject@@W4Call@QMetaObject@@HPEAPEAX@Z PROC ; socketServer::qt_static_metacall, COMDAT
; File f:\code\sghang\socketserver\generatedfiles\release\moc_socketserver.cpp
; Line 111
$LN85:
	mov	QWORD PTR [rsp+8], rbx
	push	rdi
	sub	rsp, 48					; 00000030H
	mov	rdi, r9
	mov	rbx, rcx
; Line 112
	test	edx, edx
	jne	$LN4@qt_static_
; Line 115
	cmp	r8d, 11
	ja	$LN28@qt_static_
	lea	rcx, OFFSET FLAT:__ImageBase
	movsxd	rax, r8d
	mov	edx, DWORD PTR $LN82@qt_static_[rcx+rax*4]
	add	rdx, rcx
	jmp	rdx
$LN6@qt_static_:
; Line 116
	xor	r9d, r9d
	xor	r8d, r8d
$LN83@qt_static_:
	lea	rdx, OFFSET FLAT:?staticMetaObject@socketServer@@2UQMetaObject@@B ; socketServer::staticMetaObject
	mov	rcx, rbx
; Line 196
	mov	rbx, QWORD PTR [rsp+64]
	add	rsp, 48					; 00000030H
	pop	rdi
; Line 116
	rex_jmp	QWORD PTR __imp_?activate@QMetaObject@@SAXPEAVQObject@@PEBU1@HPEAPEAX@Z
$LN7@qt_static_:
; Line 117
	xor	r9d, r9d
	lea	r8d, QWORD PTR [r9+1]
	jmp	SHORT $LN83@qt_static_
$LN8@qt_static_:
; Line 118
	mov	rdx, QWORD PTR [r9+8]
	lea	rcx, QWORD PTR $T2[rsp]
	call	QWORD PTR __imp_??0QByteArray@@QEAA@AEBV0@@Z
	mov	rdx, rax
	mov	rcx, rbx
	call	?signal_receiveDataAll@socketServer@@QEAAXVQByteArray@@@Z ; socketServer::signal_receiveDataAll
; Line 196
	mov	rbx, QWORD PTR [rsp+64]
	add	rsp, 48					; 00000030H
	pop	rdi
	ret	0
$LN9@qt_static_:
; Line 119
	xor	r9d, r9d
	lea	r8d, QWORD PTR [r9+3]
	jmp	SHORT $LN83@qt_static_
$LN10@qt_static_:
; Line 120
	xor	r9d, r9d
	lea	r8d, QWORD PTR [r9+4]
	jmp	SHORT $LN83@qt_static_
$LN11@qt_static_:
; Line 121
	xor	r9d, r9d
	lea	r8d, QWORD PTR [r9+5]
	jmp	SHORT $LN83@qt_static_
$LN12@qt_static_:
; Line 122
	xor	r9d, r9d
	lea	r8d, QWORD PTR [r9+6]
	jmp	SHORT $LN83@qt_static_
$LN13@qt_static_:
; Line 123
	xor	r9d, r9d
	lea	r8d, QWORD PTR [r9+7]
	jmp	SHORT $LN83@qt_static_
$LN14@qt_static_:
; Line 124
	mov	rdx, QWORD PTR [r9+8]
	lea	rcx, QWORD PTR $T1[rsp]
	call	QWORD PTR __imp_??0QString@@QEAA@AEBV0@@Z
	mov	rcx, QWORD PTR [rdi+16]
	mov	rdx, rax
	mov	r8d, DWORD PTR [rcx]
	mov	rcx, rbx
	call	?signal_dataIn@socketServer@@QEAAXVQString@@H@Z ; socketServer::signal_dataIn
; Line 196
	mov	rbx, QWORD PTR [rsp+64]
	add	rsp, 48					; 00000030H
	pop	rdi
	ret	0
$LN15@qt_static_:
; Line 125
	mov	rcx, rbx
; Line 196
	mov	rbx, QWORD PTR [rsp+64]
	add	rsp, 48					; 00000030H
	pop	rdi
; Line 125
	jmp	?slot_newClient@socketServer@@AEAAXXZ	; socketServer::slot_newClient
$LN16@qt_static_:
; Line 126
	mov	rcx, rbx
; Line 196
	mov	rbx, QWORD PTR [rsp+64]
	add	rsp, 48					; 00000030H
	pop	rdi
; Line 126
	jmp	?slot_receiveData@socketServer@@AEAAXXZ	; socketServer::slot_receiveData
$LN17@qt_static_:
; Line 127
	mov	rcx, rbx
; Line 196
	mov	rbx, QWORD PTR [rsp+64]
	add	rsp, 48					; 00000030H
	pop	rdi
; Line 127
	jmp	?slot_disconnected@socketServer@@AEAAXXZ ; socketServer::slot_disconnected
$LN4@qt_static_:
; Line 130
	cmp	edx, 10
	jne	$LN28@qt_static_
; Line 134
	mov	rcx, QWORD PTR [r9+8]
	lea	r8, OFFSET FLAT:?signal_newConnect@socketServer@@QEAAXXZ ; socketServer::signal_newConnect
	mov	rdx, QWORD PTR [r9]
	mov	rax, QWORD PTR [rcx]
	cmp	rax, r8
	jne	SHORT $LN20@qt_static_
	test	rax, rax
	je	SHORT $LN73@qt_static_
	cmp	DWORD PTR [rcx+8], 0
	jne	SHORT $LN20@qt_static_
$LN73@qt_static_:
; Line 135
	mov	DWORD PTR [rdx], 0
; Line 196
	mov	rbx, QWORD PTR [rsp+64]
	add	rsp, 48					; 00000030H
	pop	rdi
	ret	0
$LN20@qt_static_:
; Line 141
	lea	r8, OFFSET FLAT:?signal_disconnect@socketServer@@QEAAXXZ ; socketServer::signal_disconnect
	cmp	rax, r8
	jne	SHORT $LN21@qt_static_
	test	rax, rax
	je	SHORT $LN74@qt_static_
	cmp	DWORD PTR [rcx+8], 0
	jne	SHORT $LN21@qt_static_
$LN74@qt_static_:
; Line 142
	mov	DWORD PTR [rdx], 1
; Line 196
	mov	rbx, QWORD PTR [rsp+64]
	add	rsp, 48					; 00000030H
	pop	rdi
	ret	0
$LN21@qt_static_:
; Line 148
	lea	r8, OFFSET FLAT:?signal_receiveDataAll@socketServer@@QEAAXVQByteArray@@@Z ; socketServer::signal_receiveDataAll
	cmp	rax, r8
	jne	SHORT $LN22@qt_static_
	test	rax, rax
	je	SHORT $LN75@qt_static_
	cmp	DWORD PTR [rcx+8], 0
	jne	SHORT $LN22@qt_static_
$LN75@qt_static_:
; Line 149
	mov	DWORD PTR [rdx], 2
; Line 196
	mov	rbx, QWORD PTR [rsp+64]
	add	rsp, 48					; 00000030H
	pop	rdi
	ret	0
$LN22@qt_static_:
; Line 155
	lea	r8, OFFSET FLAT:?signal_beat@socketServer@@QEAAXXZ ; socketServer::signal_beat
	cmp	rax, r8
	jne	SHORT $LN23@qt_static_
	test	rax, rax
	je	SHORT $LN76@qt_static_
	cmp	DWORD PTR [rcx+8], 0
	jne	SHORT $LN23@qt_static_
$LN76@qt_static_:
; Line 156
	mov	DWORD PTR [rdx], 3
; Line 196
	mov	rbx, QWORD PTR [rsp+64]
	add	rsp, 48					; 00000030H
	pop	rdi
	ret	0
$LN23@qt_static_:
; Line 162
	lea	r8, OFFSET FLAT:?signal_detectStart@socketServer@@QEAAXXZ ; socketServer::signal_detectStart
	cmp	rax, r8
	jne	SHORT $LN24@qt_static_
	test	rax, rax
	je	SHORT $LN77@qt_static_
	cmp	DWORD PTR [rcx+8], 0
	jne	SHORT $LN24@qt_static_
$LN77@qt_static_:
; Line 163
	mov	DWORD PTR [rdx], 4
; Line 196
	mov	rbx, QWORD PTR [rsp+64]
	add	rsp, 48					; 00000030H
	pop	rdi
	ret	0
$LN24@qt_static_:
; Line 169
	lea	r8, OFFSET FLAT:?signal_detectStop@socketServer@@QEAAXXZ ; socketServer::signal_detectStop
	cmp	rax, r8
	jne	SHORT $LN25@qt_static_
	test	rax, rax
	je	SHORT $LN78@qt_static_
	cmp	DWORD PTR [rcx+8], 0
	jne	SHORT $LN25@qt_static_
$LN78@qt_static_:
; Line 170
	mov	DWORD PTR [rdx], 5
; Line 196
	mov	rbx, QWORD PTR [rsp+64]
	add	rsp, 48					; 00000030H
	pop	rdi
	ret	0
$LN25@qt_static_:
; Line 176
	lea	r8, OFFSET FLAT:?signal_caliStart@socketServer@@QEAAXXZ ; socketServer::signal_caliStart
	cmp	rax, r8
	jne	SHORT $LN26@qt_static_
	test	rax, rax
	je	SHORT $LN79@qt_static_
	cmp	DWORD PTR [rcx+8], 0
	jne	SHORT $LN26@qt_static_
$LN79@qt_static_:
; Line 177
	mov	DWORD PTR [rdx], 6
; Line 196
	mov	rbx, QWORD PTR [rsp+64]
	add	rsp, 48					; 00000030H
	pop	rdi
	ret	0
$LN26@qt_static_:
; Line 183
	lea	r8, OFFSET FLAT:?signal_caliStop@socketServer@@QEAAXXZ ; socketServer::signal_caliStop
	cmp	rax, r8
	jne	SHORT $LN27@qt_static_
	test	rax, rax
	je	SHORT $LN80@qt_static_
	cmp	DWORD PTR [rcx+8], 0
	jne	SHORT $LN27@qt_static_
$LN80@qt_static_:
; Line 184
	mov	DWORD PTR [rdx], 7
; Line 196
	mov	rbx, QWORD PTR [rsp+64]
	add	rsp, 48					; 00000030H
	pop	rdi
	ret	0
$LN27@qt_static_:
; Line 190
	lea	r8, OFFSET FLAT:?signal_dataIn@socketServer@@QEAAXVQString@@H@Z ; socketServer::signal_dataIn
	cmp	rax, r8
	jne	SHORT $LN28@qt_static_
	test	rax, rax
	je	SHORT $LN81@qt_static_
	cmp	DWORD PTR [rcx+8], 0
	jne	SHORT $LN28@qt_static_
$LN81@qt_static_:
; Line 191
	mov	DWORD PTR [rdx], 8
$LN28@qt_static_:
; Line 196
	mov	rbx, QWORD PTR [rsp+64]
	add	rsp, 48					; 00000030H
	pop	rdi
	ret	0
	npad	3
$LN82@qt_static_:
	DD	$LN6@qt_static_
	DD	$LN7@qt_static_
	DD	$LN8@qt_static_
	DD	$LN9@qt_static_
	DD	$LN10@qt_static_
	DD	$LN11@qt_static_
	DD	$LN12@qt_static_
	DD	$LN13@qt_static_
	DD	$LN14@qt_static_
	DD	$LN15@qt_static_
	DD	$LN16@qt_static_
	DD	$LN17@qt_static_
?qt_static_metacall@socketServer@@CAXPEAVQObject@@W4Call@QMetaObject@@HPEAPEAX@Z ENDP ; socketServer::qt_static_metacall
_TEXT	ENDS
; Function compile flags: /Ogtpy
;	COMDAT ?trUtf8@socketServer@@SA?AVQString@@PEBD0H@Z
_TEXT	SEGMENT
$T1 = 48
__$ReturnUdt$ = 80
s$ = 88
c$ = 96
n$ = 104
?trUtf8@socketServer@@SA?AVQString@@PEBD0H@Z PROC	; socketServer::trUtf8, COMDAT
; File f:\code\sghang\socketserver\socketserver.h
; Line 13
$LN6:
	push	rbx
	sub	rsp, 64					; 00000040H
	mov	DWORD PTR [rsp+32], r9d
	mov	rbx, rcx
	mov	r9, r8
	mov	DWORD PTR $T1[rsp], 0
	mov	r8, rdx
	mov	rdx, rcx
	lea	rcx, OFFSET FLAT:?staticMetaObject@socketServer@@2UQMetaObject@@B ; socketServer::staticMetaObject
	call	QWORD PTR __imp_?tr@QMetaObject@@QEBA?AVQString@@PEBD0H@Z
	mov	rax, rbx
	add	rsp, 64					; 00000040H
	pop	rbx
	ret	0
?trUtf8@socketServer@@SA?AVQString@@PEBD0H@Z ENDP	; socketServer::trUtf8
_TEXT	ENDS
; Function compile flags: /Ogtpy
;	COMDAT ?tr@socketServer@@SA?AVQString@@PEBD0H@Z
_TEXT	SEGMENT
$T1 = 48
__$ReturnUdt$ = 80
s$ = 88
c$ = 96
n$ = 104
?tr@socketServer@@SA?AVQString@@PEBD0H@Z PROC		; socketServer::tr, COMDAT
; File f:\code\sghang\socketserver\socketserver.h
; Line 13
$LN6:
	push	rbx
	sub	rsp, 64					; 00000040H
	mov	DWORD PTR [rsp+32], r9d
	mov	rbx, rcx
	mov	r9, r8
	mov	DWORD PTR $T1[rsp], 0
	mov	r8, rdx
	mov	rdx, rcx
	lea	rcx, OFFSET FLAT:?staticMetaObject@socketServer@@2UQMetaObject@@B ; socketServer::staticMetaObject
	call	QWORD PTR __imp_?tr@QMetaObject@@QEBA?AVQString@@PEBD0H@Z
	mov	rax, rbx
	add	rsp, 64					; 00000040H
	pop	rbx
	ret	0
?tr@socketServer@@SA?AVQString@@PEBD0H@Z ENDP		; socketServer::tr
_TEXT	ENDS
; Function compile flags: /Ogtpy
;	COMDAT ?qt_metacall@socketServer@@UEAAHW4Call@QMetaObject@@HPEAPEAX@Z
_TEXT	SEGMENT
this$ = 48
_c$ = 56
_id$ = 64
_a$ = 72
?qt_metacall@socketServer@@UEAAHW4Call@QMetaObject@@HPEAPEAX@Z PROC ; socketServer::qt_metacall, COMDAT
; File f:\code\sghang\socketserver\generatedfiles\release\moc_socketserver.cpp
; Line 220
$LN10:
	mov	QWORD PTR [rsp+8], rbx
	mov	QWORD PTR [rsp+16], rbp
	mov	QWORD PTR [rsp+24], rsi
	push	rdi
	sub	rsp, 32					; 00000020H
	mov	rsi, r9
	mov	edi, edx
	mov	rbp, rcx
; Line 221
	call	QWORD PTR __imp_?qt_metacall@QObject@@UEAAHW4Call@QMetaObject@@HPEAPEAX@Z
	mov	ebx, eax
; Line 222
	test	eax, eax
	js	SHORT $LN1@qt_metacal
; Line 224
	test	edi, edi
	jne	SHORT $LN3@qt_metacal
; Line 225
	cmp	eax, 12
	jge	SHORT $LN7@qt_metacal
; Line 226
	mov	r9, rsi
	mov	r8d, eax
	xor	edx, edx
	mov	rcx, rbp
	call	?qt_static_metacall@socketServer@@CAXPEAVQObject@@W4Call@QMetaObject@@HPEAPEAX@Z ; socketServer::qt_static_metacall
; Line 227
	jmp	SHORT $LN7@qt_metacal
$LN3@qt_metacal:
; Line 228
	cmp	edi, 12
	jne	SHORT $LN6@qt_metacal
; Line 229
	cmp	ebx, edi
	jge	SHORT $LN7@qt_metacal
; Line 230
	mov	rax, QWORD PTR [rsi]
	mov	DWORD PTR [rax], -1
$LN7@qt_metacal:
; Line 231
	sub	ebx, 12
$LN6@qt_metacal:
; Line 233
	mov	eax, ebx
$LN1@qt_metacal:
; Line 234
	mov	rbx, QWORD PTR [rsp+48]
	mov	rbp, QWORD PTR [rsp+56]
	mov	rsi, QWORD PTR [rsp+64]
	add	rsp, 32					; 00000020H
	pop	rdi
	ret	0
?qt_metacall@socketServer@@UEAAHW4Call@QMetaObject@@HPEAPEAX@Z ENDP ; socketServer::qt_metacall
_TEXT	ENDS
; Function compile flags: /Ogtpy
;	COMDAT ?qt_metacast@socketServer@@UEAAPEAXPEBD@Z
_TEXT	SEGMENT
this$ = 48
_clname$ = 56
?qt_metacast@socketServer@@UEAAPEAXPEBD@Z PROC		; socketServer::qt_metacast, COMDAT
; File f:\code\sghang\socketserver\generatedfiles\release\moc_socketserver.cpp
; Line 210
$LN11:
	mov	QWORD PTR [rsp+8], rbx
	push	rdi
	sub	rsp, 32					; 00000020H
	mov	rdi, rdx
	mov	rbx, rcx
; Line 211
	test	rdx, rdx
	jne	SHORT $LN2@qt_metacas
	xor	eax, eax
; Line 217
	mov	rbx, QWORD PTR [rsp+48]
	add	rsp, 32					; 00000020H
	pop	rdi
	ret	0
$LN2@qt_metacas:
; Line 212
	lea	r8, OFFSET FLAT:?qt_meta_stringdata_socketServer@@3Uqt_meta_stringdata_socketServer_t@@B+384
	mov	rax, rdi
	sub	r8, rdi
	npad	1
$LL8@qt_metacas:
	movzx	edx, BYTE PTR [rax]
	movzx	ecx, BYTE PTR [rax+r8]
	sub	edx, ecx
	jne	SHORT $LN9@qt_metacas
	inc	rax
	test	ecx, ecx
	jne	SHORT $LL8@qt_metacas
$LN9@qt_metacas:
	test	edx, edx
	jne	SHORT $LN3@qt_metacas
; Line 213
	mov	rax, rbx
; Line 217
	mov	rbx, QWORD PTR [rsp+48]
	add	rsp, 32					; 00000020H
	pop	rdi
	ret	0
$LN3@qt_metacas:
; Line 214
	lea	rdx, OFFSET FLAT:??_C@_0L@LHMMGAIG@ModuleBase?$AA@
	mov	rcx, rdi
	call	strcmp
	test	eax, eax
	jne	SHORT $LN4@qt_metacas
	xor	ecx, ecx
	lea	rax, QWORD PTR [rbx+16]
	test	rbx, rbx
	cmove	rax, rcx
; Line 217
	mov	rbx, QWORD PTR [rsp+48]
	add	rsp, 32					; 00000020H
	pop	rdi
	ret	0
$LN4@qt_metacas:
; Line 216
	mov	rdx, rdi
	mov	rcx, rbx
; Line 217
	mov	rbx, QWORD PTR [rsp+48]
	add	rsp, 32					; 00000020H
	pop	rdi
; Line 216
	rex_jmp	QWORD PTR __imp_?qt_metacast@QObject@@UEAAPEAXPEBD@Z
?qt_metacast@socketServer@@UEAAPEAXPEBD@Z ENDP		; socketServer::qt_metacast
_TEXT	ENDS
; Function compile flags: /Ogtpy
;	COMDAT ?metaObject@socketServer@@UEBAPEBUQMetaObject@@XZ
_TEXT	SEGMENT
this$ = 8
?metaObject@socketServer@@UEBAPEBUQMetaObject@@XZ PROC	; socketServer::metaObject, COMDAT
; File f:\code\sghang\socketserver\generatedfiles\release\moc_socketserver.cpp
; Line 206
	mov	rcx, QWORD PTR [rcx+8]
	cmp	QWORD PTR [rcx+40], 0
	je	SHORT $LN3@metaObject
	rex_jmp	QWORD PTR __imp_?dynamicMetaObject@QObjectData@@QEBAPEAUQMetaObject@@XZ
$LN3@metaObject:
	lea	rax, OFFSET FLAT:?staticMetaObject@socketServer@@2UQMetaObject@@B ; socketServer::staticMetaObject
; Line 207
	ret	0
?metaObject@socketServer@@UEBAPEBUQMetaObject@@XZ ENDP	; socketServer::metaObject
_TEXT	ENDS
; Function compile flags: /Ogtpy
;	COMDAT ??C?$QScopedPointer@VQObjectData@@U?$QScopedPointerDeleter@VQObjectData@@@@@@QEBAPEAVQObjectData@@XZ
_TEXT	SEGMENT
this$ = 8
??C?$QScopedPointer@VQObjectData@@U?$QScopedPointerDeleter@VQObjectData@@@@@@QEBAPEAVQObjectData@@XZ PROC ; QScopedPointer<QObjectData,QScopedPointerDeleter<QObjectData> >::operator->, COMDAT
; File c:\qt\qt5.9.8\5.9.8\msvc2015_64\include\qtcore\qscopedpointer.h
; Line 118
	mov	rax, QWORD PTR [rcx]
; Line 119
	ret	0
??C?$QScopedPointer@VQObjectData@@U?$QScopedPointerDeleter@VQObjectData@@@@@@QEBAPEAVQObjectData@@XZ ENDP ; QScopedPointer<QObjectData,QScopedPointerDeleter<QObjectData> >::operator->
_TEXT	ENDS
END
